
kernel.bin:     file format elf32-i386


Disassembly of section .earlyinit:

0010000c <_early_init>:
  10000c:	bc 00 a0 10 00       	mov    $0x10a000,%esp
  100011:	81 c3 00 00 00 c0    	add    $0xc0000000,%ebx
  100017:	53                   	push   %ebx
  100018:	50                   	push   %eax
  100019:	31 c0                	xor    %eax,%eax
  10001b:	b9 00 b0 10 00       	mov    $0x10b000,%ecx

00100020 <L1>:
  100020:	89 c2                	mov    %eax,%edx
  100022:	c1 e2 0c             	shl    $0xc,%edx
  100025:	83 ca 03             	or     $0x3,%edx
  100028:	89 14 81             	mov    %edx,(%ecx,%eax,4)
  10002b:	83 c0 01             	add    $0x1,%eax
  10002e:	3d 00 01 00 00       	cmp    $0x100,%eax
  100033:	75 eb                	jne    100020 <L1>
  100035:	bb 00 40 10 c0       	mov    $0xc0104000,%ebx
  10003a:	81 eb 00 00 00 c0    	sub    $0xc0000000,%ebx
  100040:	c1 eb 0c             	shr    $0xc,%ebx

00100043 <L2>:
  100043:	89 c2                	mov    %eax,%edx
  100045:	c1 e2 0c             	shl    $0xc,%edx
  100048:	83 c2 01             	add    $0x1,%edx
  10004b:	89 14 81             	mov    %edx,(%ecx,%eax,4)
  10004e:	83 c0 01             	add    $0x1,%eax
  100051:	39 d8                	cmp    %ebx,%eax
  100053:	75 ee                	jne    100043 <L2>
  100055:	bb 00 d0 20 c0       	mov    $0xc020d000,%ebx
  10005a:	81 eb 00 00 00 c0    	sub    $0xc0000000,%ebx
  100060:	c1 eb 0c             	shr    $0xc,%ebx

00100063 <L3>:
  100063:	89 c2                	mov    %eax,%edx
  100065:	c1 e2 0c             	shl    $0xc,%edx
  100068:	83 c2 01             	add    $0x1,%edx
  10006b:	89 14 81             	mov    %edx,(%ecx,%eax,4)
  10006e:	83 c0 01             	add    $0x1,%eax
  100071:	39 d8                	cmp    %ebx,%eax
  100073:	75 ee                	jne    100063 <L3>
  100075:	ba 00 a0 10 00       	mov    $0x10a000,%edx
  10007a:	83 c9 03             	or     $0x3,%ecx
  10007d:	89 0a                	mov    %ecx,(%edx)
  10007f:	89 8a 00 0c 00 00    	mov    %ecx,0xc00(%edx)
  100085:	0f 22 da             	mov    %edx,%cr3
  100088:	0f 20 c0             	mov    %cr0,%eax
  10008b:	0d 00 00 01 80       	or     $0x80010000,%eax
  100090:	0f 22 c0             	mov    %eax,%cr0
  100093:	b8 45 11 10 c0       	mov    $0xc0101145,%eax
  100098:	ff e0                	jmp    *%eax

Disassembly of section .text:

c0101000 <deregister_tm_clones>:
c0101000:	b8 a0 40 10 c0       	mov    $0xc01040a0,%eax
c0101005:	3d a0 40 10 c0       	cmp    $0xc01040a0,%eax
c010100a:	74 24                	je     c0101030 <deregister_tm_clones+0x30>
c010100c:	b8 00 00 00 00       	mov    $0x0,%eax
c0101011:	85 c0                	test   %eax,%eax
c0101013:	74 1b                	je     c0101030 <deregister_tm_clones+0x30>
c0101015:	55                   	push   %ebp
c0101016:	89 e5                	mov    %esp,%ebp
c0101018:	83 ec 14             	sub    $0x14,%esp
c010101b:	68 a0 40 10 c0       	push   $0xc01040a0
c0101020:	ff d0                	call   *%eax
c0101022:	83 c4 10             	add    $0x10,%esp
c0101025:	c9                   	leave  
c0101026:	c3                   	ret    
c0101027:	8d b4 26 00 00 00 00 	lea    0x0(%esi,%eiz,1),%esi
c010102e:	66 90                	xchg   %ax,%ax
c0101030:	c3                   	ret    
c0101031:	8d b4 26 00 00 00 00 	lea    0x0(%esi,%eiz,1),%esi
c0101038:	8d b4 26 00 00 00 00 	lea    0x0(%esi,%eiz,1),%esi
c010103f:	90                   	nop

c0101040 <register_tm_clones>:
c0101040:	b8 a0 40 10 c0       	mov    $0xc01040a0,%eax
c0101045:	2d a0 40 10 c0       	sub    $0xc01040a0,%eax
c010104a:	89 c2                	mov    %eax,%edx
c010104c:	c1 e8 1f             	shr    $0x1f,%eax
c010104f:	c1 fa 02             	sar    $0x2,%edx
c0101052:	01 d0                	add    %edx,%eax
c0101054:	d1 f8                	sar    %eax
c0101056:	74 28                	je     c0101080 <register_tm_clones+0x40>
c0101058:	ba 00 00 00 00       	mov    $0x0,%edx
c010105d:	85 d2                	test   %edx,%edx
c010105f:	74 1f                	je     c0101080 <register_tm_clones+0x40>
c0101061:	55                   	push   %ebp
c0101062:	89 e5                	mov    %esp,%ebp
c0101064:	83 ec 10             	sub    $0x10,%esp
c0101067:	50                   	push   %eax
c0101068:	68 a0 40 10 c0       	push   $0xc01040a0
c010106d:	ff d2                	call   *%edx
c010106f:	83 c4 10             	add    $0x10,%esp
c0101072:	c9                   	leave  
c0101073:	c3                   	ret    
c0101074:	8d b4 26 00 00 00 00 	lea    0x0(%esi,%eiz,1),%esi
c010107b:	8d 74 26 00          	lea    0x0(%esi,%eiz,1),%esi
c010107f:	90                   	nop
c0101080:	c3                   	ret    
c0101081:	8d b4 26 00 00 00 00 	lea    0x0(%esi,%eiz,1),%esi
c0101088:	8d b4 26 00 00 00 00 	lea    0x0(%esi,%eiz,1),%esi
c010108f:	90                   	nop

c0101090 <__do_global_dtors_aux>:
c0101090:	80 3d 00 50 10 c0 00 	cmpb   $0x0,0xc0105000
c0101097:	75 67                	jne    c0101100 <__do_global_dtors_aux+0x70>
c0101099:	55                   	push   %ebp
c010109a:	a1 04 50 10 c0       	mov    0xc0105004,%eax
c010109f:	89 e5                	mov    %esp,%ebp
c01010a1:	56                   	push   %esi
c01010a2:	be 98 40 10 c0       	mov    $0xc0104098,%esi
c01010a7:	53                   	push   %ebx
c01010a8:	bb 9c 40 10 c0       	mov    $0xc010409c,%ebx
c01010ad:	81 eb 98 40 10 c0    	sub    $0xc0104098,%ebx
c01010b3:	c1 fb 02             	sar    $0x2,%ebx
c01010b6:	83 eb 01             	sub    $0x1,%ebx
c01010b9:	39 d8                	cmp    %ebx,%eax
c01010bb:	73 17                	jae    c01010d4 <__do_global_dtors_aux+0x44>
c01010bd:	8d 76 00             	lea    0x0(%esi),%esi
c01010c0:	83 c0 01             	add    $0x1,%eax
c01010c3:	a3 04 50 10 c0       	mov    %eax,0xc0105004
c01010c8:	ff 14 86             	call   *(%esi,%eax,4)
c01010cb:	a1 04 50 10 c0       	mov    0xc0105004,%eax
c01010d0:	39 d8                	cmp    %ebx,%eax
c01010d2:	72 ec                	jb     c01010c0 <__do_global_dtors_aux+0x30>
c01010d4:	e8 27 ff ff ff       	call   c0101000 <deregister_tm_clones>
c01010d9:	b8 00 00 00 00       	mov    $0x0,%eax
c01010de:	85 c0                	test   %eax,%eax
c01010e0:	74 10                	je     c01010f2 <__do_global_dtors_aux+0x62>
c01010e2:	83 ec 0c             	sub    $0xc,%esp
c01010e5:	68 2c 31 10 c0       	push   $0xc010312c
c01010ea:	e8 11 ef ef 3f       	call   0 <ALIGN-0x1>
c01010ef:	83 c4 10             	add    $0x10,%esp
c01010f2:	c6 05 00 50 10 c0 01 	movb   $0x1,0xc0105000
c01010f9:	8d 65 f8             	lea    -0x8(%ebp),%esp
c01010fc:	5b                   	pop    %ebx
c01010fd:	5e                   	pop    %esi
c01010fe:	5d                   	pop    %ebp
c01010ff:	c3                   	ret    
c0101100:	c3                   	ret    
c0101101:	8d b4 26 00 00 00 00 	lea    0x0(%esi,%eiz,1),%esi
c0101108:	8d b4 26 00 00 00 00 	lea    0x0(%esi,%eiz,1),%esi
c010110f:	90                   	nop

c0101110 <frame_dummy>:
c0101110:	b8 00 00 00 00       	mov    $0x0,%eax
c0101115:	85 c0                	test   %eax,%eax
c0101117:	74 27                	je     c0101140 <frame_dummy+0x30>
c0101119:	55                   	push   %ebp
c010111a:	89 e5                	mov    %esp,%ebp
c010111c:	83 ec 10             	sub    $0x10,%esp
c010111f:	68 08 50 10 c0       	push   $0xc0105008
c0101124:	68 2c 31 10 c0       	push   $0xc010312c
c0101129:	e8 d2 ee ef 3f       	call   0 <ALIGN-0x1>
c010112e:	83 c4 10             	add    $0x10,%esp
c0101131:	c9                   	leave  
c0101132:	e9 09 ff ff ff       	jmp    c0101040 <register_tm_clones>
c0101137:	8d b4 26 00 00 00 00 	lea    0x0(%esi,%eiz,1),%esi
c010113e:	66 90                	xchg   %ax,%ax
c0101140:	e9 fb fe ff ff       	jmp    c0101040 <register_tm_clones>

c0101145 <_paged_start>:
c0101145:	81 c4 00 00 00 c0    	add    $0xc0000000,%esp
c010114b:	c7 02 00 00 00 00    	movl   $0x0,(%edx)
c0101151:	0f 22 da             	mov    %edx,%cr3
c0101154:	0f 01 15 18 30 10 c0 	lgdtl  0xc0103018
c010115b:	ea 62 11 10 c0 08 00 	ljmp   $0x8,$0xc0101162

c0101162 <_reload_segment_registers>:
c0101162:	66 b9 10 00          	mov    $0x10,%cx
c0101166:	8e d9                	mov    %ecx,%ds
c0101168:	8e c1                	mov    %ecx,%es
c010116a:	8e e1                	mov    %ecx,%fs
c010116c:	8e e9                	mov    %ecx,%gs
c010116e:	8e d1                	mov    %ecx,%ss
c0101170:	66 b8 36 00          	mov    $0x36,%ax
c0101174:	66 ba 43 00          	mov    $0x43,%dx
c0101178:	66 ef                	out    %ax,(%dx)
c010117a:	66 ba 40 00          	mov    $0x40,%dx
c010117e:	66 b8 0b 00          	mov    $0xb,%ax
c0101182:	66 ef                	out    %ax,(%dx)
c0101184:	66 b8 e9 00          	mov    $0xe9,%ax
c0101188:	66 ef                	out    %ax,(%dx)
c010118a:	fc                   	cld    
c010118b:	e8 51 19 00 00       	call   c0102ae1 <_init>
c0101190:	e8 4b 09 00 00       	call   c0101ae0 <kernel_main>

c0101195 <sleep>:
c0101195:	f4                   	hlt    
c0101196:	eb fd                	jmp    c0101195 <sleep>
c0101198:	66 90                	xchg   %ax,%ax
c010119a:	66 90                	xchg   %ax,%ax
c010119c:	66 90                	xchg   %ax,%ax
c010119e:	66 90                	xchg   %ax,%ax

c01011a0 <terminal_initialize>:
c01011a0:	0f b6 15 04 40 10 c0 	movzbl 0xc0104004,%edx
c01011a7:	b8 00 80 0b c0       	mov    $0xc00b8000,%eax
c01011ac:	8d 74 26 00          	lea    0x0(%esi,%eiz,1),%esi
c01011b0:	c6 00 20             	movb   $0x20,(%eax)
c01011b3:	83 c0 02             	add    $0x2,%eax
c01011b6:	88 50 ff             	mov    %dl,-0x1(%eax)
c01011b9:	3d a0 8f 0b c0       	cmp    $0xc00b8fa0,%eax
c01011be:	75 f0                	jne    c01011b0 <terminal_initialize+0x10>
c01011c0:	c7 05 04 c0 10 c0 00 	movl   $0x0,0xc010c004
c01011c7:	00 00 00 
c01011ca:	c7 05 00 c0 10 c0 00 	movl   $0x0,0xc010c000
c01011d1:	00 00 00 
c01011d4:	c3                   	ret    
c01011d5:	8d b4 26 00 00 00 00 	lea    0x0(%esi,%eiz,1),%esi
c01011dc:	8d 74 26 00          	lea    0x0(%esi,%eiz,1),%esi

c01011e0 <terminal_putchar>:
c01011e0:	55                   	push   %ebp
c01011e1:	8b 15 04 c0 10 c0    	mov    0xc010c004,%edx
c01011e7:	89 e5                	mov    %esp,%ebp
c01011e9:	56                   	push   %esi
c01011ea:	8b 4d 08             	mov    0x8(%ebp),%ecx
c01011ed:	53                   	push   %ebx
c01011ee:	80 f9 0a             	cmp    $0xa,%cl
c01011f1:	74 2b                	je     c010121e <terminal_putchar+0x3e>
c01011f3:	8b 35 00 c0 10 c0    	mov    0xc010c000,%esi
c01011f9:	8d 04 92             	lea    (%edx,%edx,4),%eax
c01011fc:	0f b6 1d 04 40 10 c0 	movzbl 0xc0104004,%ebx
c0101203:	c1 e0 04             	shl    $0x4,%eax
c0101206:	01 f0                	add    %esi,%eax
c0101208:	01 c0                	add    %eax,%eax
c010120a:	88 98 01 80 0b c0    	mov    %bl,-0x3ff47fff(%eax)
c0101210:	88 88 00 80 0b c0    	mov    %cl,-0x3ff48000(%eax)
c0101216:	8d 46 01             	lea    0x1(%esi),%eax
c0101219:	83 fe 4f             	cmp    $0x4f,%esi
c010121c:	75 22                	jne    c0101240 <terminal_putchar+0x60>
c010121e:	c7 05 00 c0 10 c0 00 	movl   $0x0,0xc010c000
c0101225:	00 00 00 
c0101228:	83 c2 01             	add    $0x1,%edx
c010122b:	89 15 04 c0 10 c0    	mov    %edx,0xc010c004
c0101231:	83 fa 19             	cmp    $0x19,%edx
c0101234:	74 14                	je     c010124a <terminal_putchar+0x6a>
c0101236:	8d 65 f8             	lea    -0x8(%ebp),%esp
c0101239:	5b                   	pop    %ebx
c010123a:	5e                   	pop    %esi
c010123b:	5d                   	pop    %ebp
c010123c:	c3                   	ret    
c010123d:	8d 76 00             	lea    0x0(%esi),%esi
c0101240:	a3 00 c0 10 c0       	mov    %eax,0xc010c000
c0101245:	83 fa 19             	cmp    $0x19,%edx
c0101248:	75 ec                	jne    c0101236 <terminal_putchar+0x56>
c010124a:	83 ec 04             	sub    $0x4,%esp
c010124d:	68 00 0f 00 00       	push   $0xf00
c0101252:	68 a0 80 0b c0       	push   $0xc00b80a0
c0101257:	68 00 80 0b c0       	push   $0xc00b8000
c010125c:	e8 8f 10 00 00       	call   c01022f0 <memmove>
c0101261:	0f b6 05 04 40 10 c0 	movzbl 0xc0104004,%eax
c0101268:	83 c4 10             	add    $0x10,%esp
c010126b:	89 c2                	mov    %eax,%edx
c010126d:	c1 e0 08             	shl    $0x8,%eax
c0101270:	c1 e2 18             	shl    $0x18,%edx
c0101273:	09 c2                	or     %eax,%edx
c0101275:	b8 00 8f 0b c0       	mov    $0xc00b8f00,%eax
c010127a:	81 ca 20 00 20 00    	or     $0x200020,%edx
c0101280:	89 10                	mov    %edx,(%eax)
c0101282:	83 c0 04             	add    $0x4,%eax
c0101285:	3d a0 8f 0b c0       	cmp    $0xc00b8fa0,%eax
c010128a:	75 f4                	jne    c0101280 <terminal_putchar+0xa0>
c010128c:	83 2d 04 c0 10 c0 01 	subl   $0x1,0xc010c004
c0101293:	8d 65 f8             	lea    -0x8(%ebp),%esp
c0101296:	5b                   	pop    %ebx
c0101297:	5e                   	pop    %esi
c0101298:	5d                   	pop    %ebp
c0101299:	c3                   	ret    
c010129a:	8d b6 00 00 00 00    	lea    0x0(%esi),%esi

c01012a0 <terminal_writestring>:
c01012a0:	55                   	push   %ebp
c01012a1:	89 e5                	mov    %esp,%ebp
c01012a3:	53                   	push   %ebx
c01012a4:	83 ec 04             	sub    $0x4,%esp
c01012a7:	8b 5d 08             	mov    0x8(%ebp),%ebx
c01012aa:	0f b6 03             	movzbl (%ebx),%eax
c01012ad:	84 c0                	test   %al,%al
c01012af:	74 25                	je     c01012d6 <terminal_writestring+0x36>
c01012b1:	8d b4 26 00 00 00 00 	lea    0x0(%esi,%eiz,1),%esi
c01012b8:	8d b4 26 00 00 00 00 	lea    0x0(%esi,%eiz,1),%esi
c01012bf:	90                   	nop
c01012c0:	83 ec 0c             	sub    $0xc,%esp
c01012c3:	83 c3 01             	add    $0x1,%ebx
c01012c6:	50                   	push   %eax
c01012c7:	e8 14 ff ff ff       	call   c01011e0 <terminal_putchar>
c01012cc:	0f b6 03             	movzbl (%ebx),%eax
c01012cf:	83 c4 10             	add    $0x10,%esp
c01012d2:	84 c0                	test   %al,%al
c01012d4:	75 ea                	jne    c01012c0 <terminal_writestring+0x20>
c01012d6:	8b 5d fc             	mov    -0x4(%ebp),%ebx
c01012d9:	c9                   	leave  
c01012da:	c3                   	ret    
c01012db:	90                   	nop

c01012dc <exception_divide_error>:
c01012dc:	6a 00                	push   $0x0
c01012de:	60                   	pusha  
c01012df:	6a 00                	push   $0x0
c01012e1:	e8 fa 05 00 00       	call   c01018e0 <exception_handler>
c01012e6:	66 90                	xchg   %ax,%ax

c01012e8 <exception_debug_exception>:
c01012e8:	cf                   	iret   
c01012e9:	8d 76 00             	lea    0x0(%esi),%esi

c01012ec <exception_nmi_interrupt>:
c01012ec:	6a 00                	push   $0x0
c01012ee:	60                   	pusha  
c01012ef:	6a 02                	push   $0x2
c01012f1:	e8 ea 05 00 00       	call   c01018e0 <exception_handler>
c01012f6:	66 90                	xchg   %ax,%ax

c01012f8 <exception_breakpoint>:
c01012f8:	cf                   	iret   
c01012f9:	8d 76 00             	lea    0x0(%esi),%esi

c01012fc <exception_overflow>:
c01012fc:	cf                   	iret   
c01012fd:	8d 76 00             	lea    0x0(%esi),%esi

c0101300 <exception_bound>:
c0101300:	6a 00                	push   $0x0
c0101302:	60                   	pusha  
c0101303:	6a 05                	push   $0x5
c0101305:	e8 d6 05 00 00       	call   c01018e0 <exception_handler>
c010130a:	66 90                	xchg   %ax,%ax

c010130c <exception_invalid_opcode>:
c010130c:	6a 00                	push   $0x0
c010130e:	60                   	pusha  
c010130f:	6a 06                	push   $0x6
c0101311:	e8 ca 05 00 00       	call   c01018e0 <exception_handler>
c0101316:	66 90                	xchg   %ax,%ax

c0101318 <exception_device_not_available>:
c0101318:	6a 00                	push   $0x0
c010131a:	60                   	pusha  
c010131b:	6a 07                	push   $0x7
c010131d:	e8 be 05 00 00       	call   c01018e0 <exception_handler>
c0101322:	66 90                	xchg   %ax,%ax

c0101324 <exception_double_fault>:
c0101324:	60                   	pusha  
c0101325:	6a 08                	push   $0x8
c0101327:	e8 b4 05 00 00       	call   c01018e0 <exception_handler>

c010132c <exception_coprocessor_segment_overrun>:
c010132c:	6a 00                	push   $0x0
c010132e:	60                   	pusha  
c010132f:	6a 09                	push   $0x9
c0101331:	e8 aa 05 00 00       	call   c01018e0 <exception_handler>
c0101336:	66 90                	xchg   %ax,%ax

c0101338 <exception_invalid_tss>:
c0101338:	60                   	pusha  
c0101339:	6a 0a                	push   $0xa
c010133b:	e8 a0 05 00 00       	call   c01018e0 <exception_handler>

c0101340 <exception_segment_not_present>:
c0101340:	60                   	pusha  
c0101341:	6a 0b                	push   $0xb
c0101343:	e8 98 05 00 00       	call   c01018e0 <exception_handler>

c0101348 <exception_stack_segment_fault>:
c0101348:	60                   	pusha  
c0101349:	6a 0c                	push   $0xc
c010134b:	e8 90 05 00 00       	call   c01018e0 <exception_handler>

c0101350 <exception_general_protection>:
c0101350:	60                   	pusha  
c0101351:	6a 0d                	push   $0xd
c0101353:	e8 88 05 00 00       	call   c01018e0 <exception_handler>

c0101358 <exception_page_fault>:
c0101358:	60                   	pusha  
c0101359:	6a 0e                	push   $0xe
c010135b:	e8 80 05 00 00       	call   c01018e0 <exception_handler>

c0101360 <exception_math_fault>:
c0101360:	6a 00                	push   $0x0
c0101362:	60                   	pusha  
c0101363:	6a 10                	push   $0x10
c0101365:	e8 76 05 00 00       	call   c01018e0 <exception_handler>
c010136a:	66 90                	xchg   %ax,%ax

c010136c <exception_alignment_check>:
c010136c:	6a 00                	push   $0x0
c010136e:	60                   	pusha  
c010136f:	6a 11                	push   $0x11
c0101371:	e8 6a 05 00 00       	call   c01018e0 <exception_handler>
c0101376:	66 90                	xchg   %ax,%ax

c0101378 <exception_machine_check>:
c0101378:	6a 00                	push   $0x0
c010137a:	60                   	pusha  
c010137b:	6a 12                	push   $0x12
c010137d:	e8 5e 05 00 00       	call   c01018e0 <exception_handler>
c0101382:	66 90                	xchg   %ax,%ax

c0101384 <exception_simd_exception>:
c0101384:	6a 00                	push   $0x0
c0101386:	60                   	pusha  
c0101387:	6a 13                	push   $0x13
c0101389:	e8 52 05 00 00       	call   c01018e0 <exception_handler>
c010138e:	66 90                	xchg   %ax,%ax

c0101390 <exception_virtualization_exception>:
c0101390:	6a 00                	push   $0x0
c0101392:	60                   	pusha  
c0101393:	6a 14                	push   $0x14
c0101395:	e8 46 05 00 00       	call   c01018e0 <exception_handler>
c010139a:	66 90                	xchg   %ax,%ax

c010139c <exception_control_protection_exception>:
c010139c:	6a 00                	push   $0x0
c010139e:	60                   	pusha  
c010139f:	6a 15                	push   $0x15
c01013a1:	e8 3a 05 00 00       	call   c01018e0 <exception_handler>
c01013a6:	66 90                	xchg   %ax,%ax

c01013a8 <null_exception_handler>:
c01013a8:	fa                   	cli    
c01013a9:	f4                   	hlt    
c01013aa:	66 90                	xchg   %ax,%ax
c01013ac:	66 90                	xchg   %ax,%ax
c01013ae:	66 90                	xchg   %ax,%ax

c01013b0 <idt_set_descriptor>:
c01013b0:	55                   	push   %ebp
c01013b1:	b9 08 00 00 00       	mov    $0x8,%ecx
c01013b6:	89 e5                	mov    %esp,%ebp
c01013b8:	8b 45 08             	mov    0x8(%ebp),%eax
c01013bb:	8b 55 0c             	mov    0xc(%ebp),%edx
c01013be:	66 89 48 02          	mov    %cx,0x2(%eax)
c01013c2:	66 89 10             	mov    %dx,(%eax)
c01013c5:	8b 4d 10             	mov    0x10(%ebp),%ecx
c01013c8:	c1 ea 10             	shr    $0x10,%edx
c01013cb:	66 89 50 06          	mov    %dx,0x6(%eax)
c01013cf:	88 48 05             	mov    %cl,0x5(%eax)
c01013d2:	c6 40 04 00          	movb   $0x0,0x4(%eax)
c01013d6:	5d                   	pop    %ebp
c01013d7:	c3                   	ret    
c01013d8:	8d b4 26 00 00 00 00 	lea    0x0(%esi,%eiz,1),%esi
c01013df:	90                   	nop

c01013e0 <idt_initialize>:
c01013e0:	55                   	push   %ebp
c01013e1:	89 e5                	mov    %esp,%ebp
c01013e3:	8b 45 08             	mov    0x8(%ebp),%eax
c01013e6:	8d 90 00 08 00 00    	lea    0x800(%eax),%edx
c01013ec:	8d 74 26 00          	lea    0x0(%esi,%eiz,1),%esi
c01013f0:	31 c9                	xor    %ecx,%ecx
c01013f2:	c6 40 05 00          	movb   $0x0,0x5(%eax)
c01013f6:	83 c0 08             	add    $0x8,%eax
c01013f9:	66 89 48 f8          	mov    %cx,-0x8(%eax)
c01013fd:	b9 08 00 00 00       	mov    $0x8,%ecx
c0101402:	66 89 48 fa          	mov    %cx,-0x6(%eax)
c0101406:	31 c9                	xor    %ecx,%ecx
c0101408:	66 89 48 fe          	mov    %cx,-0x2(%eax)
c010140c:	c6 40 fc 00          	movb   $0x0,-0x4(%eax)
c0101410:	39 d0                	cmp    %edx,%eax
c0101412:	75 dc                	jne    c01013f0 <idt_initialize+0x10>
c0101414:	5d                   	pop    %ebp
c0101415:	c3                   	ret    
c0101416:	8d b4 26 00 00 00 00 	lea    0x0(%esi,%eiz,1),%esi
c010141d:	8d 76 00             	lea    0x0(%esi),%esi

c0101420 <idt_init_exception_handlers>:
c0101420:	55                   	push   %ebp
c0101421:	ba dc 12 10 c0       	mov    $0xc01012dc,%edx
c0101426:	b9 08 00 00 00       	mov    $0x8,%ecx
c010142b:	89 e5                	mov    %esp,%ebp
c010142d:	8b 45 08             	mov    0x8(%ebp),%eax
c0101430:	66 89 10             	mov    %dx,(%eax)
c0101433:	c1 ea 10             	shr    $0x10,%edx
c0101436:	66 89 50 06          	mov    %dx,0x6(%eax)
c010143a:	ba e8 12 10 c0       	mov    $0xc01012e8,%edx
c010143f:	66 89 50 08          	mov    %dx,0x8(%eax)
c0101443:	c1 ea 10             	shr    $0x10,%edx
c0101446:	66 89 50 0e          	mov    %dx,0xe(%eax)
c010144a:	ba ec 12 10 c0       	mov    $0xc01012ec,%edx
c010144f:	66 89 50 10          	mov    %dx,0x10(%eax)
c0101453:	c1 ea 10             	shr    $0x10,%edx
c0101456:	66 89 50 16          	mov    %dx,0x16(%eax)
c010145a:	ba f8 12 10 c0       	mov    $0xc01012f8,%edx
c010145f:	66 89 50 18          	mov    %dx,0x18(%eax)
c0101463:	c1 ea 10             	shr    $0x10,%edx
c0101466:	66 89 50 1e          	mov    %dx,0x1e(%eax)
c010146a:	ba fc 12 10 c0       	mov    $0xc01012fc,%edx
c010146f:	66 89 50 20          	mov    %dx,0x20(%eax)
c0101473:	c1 ea 10             	shr    $0x10,%edx
c0101476:	66 89 50 26          	mov    %dx,0x26(%eax)
c010147a:	ba 00 13 10 c0       	mov    $0xc0101300,%edx
c010147f:	66 89 50 28          	mov    %dx,0x28(%eax)
c0101483:	c1 ea 10             	shr    $0x10,%edx
c0101486:	66 89 50 2e          	mov    %dx,0x2e(%eax)
c010148a:	ba 0c 13 10 c0       	mov    $0xc010130c,%edx
c010148f:	66 89 50 30          	mov    %dx,0x30(%eax)
c0101493:	c1 ea 10             	shr    $0x10,%edx
c0101496:	66 89 50 36          	mov    %dx,0x36(%eax)
c010149a:	ba 18 13 10 c0       	mov    $0xc0101318,%edx
c010149f:	66 89 50 38          	mov    %dx,0x38(%eax)
c01014a3:	c1 ea 10             	shr    $0x10,%edx
c01014a6:	66 89 50 3e          	mov    %dx,0x3e(%eax)
c01014aa:	ba 24 13 10 c0       	mov    $0xc0101324,%edx
c01014af:	66 89 50 40          	mov    %dx,0x40(%eax)
c01014b3:	c1 ea 10             	shr    $0x10,%edx
c01014b6:	66 89 50 46          	mov    %dx,0x46(%eax)
c01014ba:	ba 2c 13 10 c0       	mov    $0xc010132c,%edx
c01014bf:	66 89 50 48          	mov    %dx,0x48(%eax)
c01014c3:	c1 ea 10             	shr    $0x10,%edx
c01014c6:	66 89 50 4e          	mov    %dx,0x4e(%eax)
c01014ca:	ba 38 13 10 c0       	mov    $0xc0101338,%edx
c01014cf:	c7 40 02 08 00 00 8f 	movl   $0x8f000008,0x2(%eax)
c01014d6:	c7 40 0a 08 00 00 8f 	movl   $0x8f000008,0xa(%eax)
c01014dd:	c7 40 12 08 00 00 8e 	movl   $0x8e000008,0x12(%eax)
c01014e4:	c7 40 1a 08 00 00 8f 	movl   $0x8f000008,0x1a(%eax)
c01014eb:	c7 40 22 08 00 00 8f 	movl   $0x8f000008,0x22(%eax)
c01014f2:	c7 40 2a 08 00 00 8f 	movl   $0x8f000008,0x2a(%eax)
c01014f9:	c7 40 32 08 00 00 8f 	movl   $0x8f000008,0x32(%eax)
c0101500:	c7 40 3a 08 00 00 8f 	movl   $0x8f000008,0x3a(%eax)
c0101507:	c7 40 42 08 00 00 8f 	movl   $0x8f000008,0x42(%eax)
c010150e:	c7 40 4a 08 00 00 8f 	movl   $0x8f000008,0x4a(%eax)
c0101515:	66 89 50 50          	mov    %dx,0x50(%eax)
c0101519:	c1 ea 10             	shr    $0x10,%edx
c010151c:	66 89 50 56          	mov    %dx,0x56(%eax)
c0101520:	ba 40 13 10 c0       	mov    $0xc0101340,%edx
c0101525:	66 89 50 58          	mov    %dx,0x58(%eax)
c0101529:	c1 ea 10             	shr    $0x10,%edx
c010152c:	66 89 50 5e          	mov    %dx,0x5e(%eax)
c0101530:	ba 48 13 10 c0       	mov    $0xc0101348,%edx
c0101535:	66 89 50 60          	mov    %dx,0x60(%eax)
c0101539:	c1 ea 10             	shr    $0x10,%edx
c010153c:	66 89 50 66          	mov    %dx,0x66(%eax)
c0101540:	ba 50 13 10 c0       	mov    $0xc0101350,%edx
c0101545:	66 89 50 68          	mov    %dx,0x68(%eax)
c0101549:	c1 ea 10             	shr    $0x10,%edx
c010154c:	66 89 50 6e          	mov    %dx,0x6e(%eax)
c0101550:	ba 58 13 10 c0       	mov    $0xc0101358,%edx
c0101555:	66 89 50 70          	mov    %dx,0x70(%eax)
c0101559:	c1 ea 10             	shr    $0x10,%edx
c010155c:	66 89 50 76          	mov    %dx,0x76(%eax)
c0101560:	ba 60 13 10 c0       	mov    $0xc0101360,%edx
c0101565:	66 89 90 80 00 00 00 	mov    %dx,0x80(%eax)
c010156c:	c1 ea 10             	shr    $0x10,%edx
c010156f:	66 89 90 86 00 00 00 	mov    %dx,0x86(%eax)
c0101576:	ba 6c 13 10 c0       	mov    $0xc010136c,%edx
c010157b:	66 89 90 88 00 00 00 	mov    %dx,0x88(%eax)
c0101582:	c1 ea 10             	shr    $0x10,%edx
c0101585:	66 89 90 8e 00 00 00 	mov    %dx,0x8e(%eax)
c010158c:	ba 78 13 10 c0       	mov    $0xc0101378,%edx
c0101591:	66 89 90 90 00 00 00 	mov    %dx,0x90(%eax)
c0101598:	c1 ea 10             	shr    $0x10,%edx
c010159b:	66 89 90 96 00 00 00 	mov    %dx,0x96(%eax)
c01015a2:	ba 84 13 10 c0       	mov    $0xc0101384,%edx
c01015a7:	66 89 90 98 00 00 00 	mov    %dx,0x98(%eax)
c01015ae:	c1 ea 10             	shr    $0x10,%edx
c01015b1:	66 89 90 9e 00 00 00 	mov    %dx,0x9e(%eax)
c01015b8:	ba 90 13 10 c0       	mov    $0xc0101390,%edx
c01015bd:	66 89 90 a0 00 00 00 	mov    %dx,0xa0(%eax)
c01015c4:	c1 ea 10             	shr    $0x10,%edx
c01015c7:	66 89 90 a6 00 00 00 	mov    %dx,0xa6(%eax)
c01015ce:	ba 9c 13 10 c0       	mov    $0xc010139c,%edx
c01015d3:	c7 40 52 08 00 00 8f 	movl   $0x8f000008,0x52(%eax)
c01015da:	c7 40 5a 08 00 00 8f 	movl   $0x8f000008,0x5a(%eax)
c01015e1:	66 89 48 62          	mov    %cx,0x62(%eax)
c01015e5:	c6 40 65 8f          	movb   $0x8f,0x65(%eax)
c01015e9:	c6 40 64 00          	movb   $0x0,0x64(%eax)
c01015ed:	c7 40 6a 08 00 00 8f 	movl   $0x8f000008,0x6a(%eax)
c01015f4:	c7 40 72 08 00 00 8f 	movl   $0x8f000008,0x72(%eax)
c01015fb:	c7 40 78 00 00 08 00 	movl   $0x80000,0x78(%eax)
c0101602:	c7 40 7c 00 00 00 00 	movl   $0x0,0x7c(%eax)
c0101609:	c7 80 82 00 00 00 08 	movl   $0x8f000008,0x82(%eax)
c0101610:	00 00 8f 
c0101613:	c7 80 8a 00 00 00 08 	movl   $0x8f000008,0x8a(%eax)
c010161a:	00 00 8f 
c010161d:	c7 80 92 00 00 00 08 	movl   $0x8f000008,0x92(%eax)
c0101624:	00 00 8f 
c0101627:	c7 80 9a 00 00 00 08 	movl   $0x8f000008,0x9a(%eax)
c010162e:	00 00 8f 
c0101631:	c7 80 a2 00 00 00 08 	movl   $0x8f000008,0xa2(%eax)
c0101638:	00 00 8f 
c010163b:	66 89 90 a8 00 00 00 	mov    %dx,0xa8(%eax)
c0101642:	c1 ea 10             	shr    $0x10,%edx
c0101645:	66 89 90 ae 00 00 00 	mov    %dx,0xae(%eax)
c010164c:	c7 80 aa 00 00 00 08 	movl   $0x8f000008,0xaa(%eax)
c0101653:	00 00 8f 
c0101656:	5d                   	pop    %ebp
c0101657:	c3                   	ret    
c0101658:	8d b4 26 00 00 00 00 	lea    0x0(%esi,%eiz,1),%esi
c010165f:	90                   	nop

c0101660 <idt_init_interrupt_handlers>:
c0101660:	55                   	push   %ebp
c0101661:	ba d4 19 10 c0       	mov    $0xc01019d4,%edx
c0101666:	b9 08 00 00 00       	mov    $0x8,%ecx
c010166b:	89 e5                	mov    %esp,%ebp
c010166d:	8b 45 08             	mov    0x8(%ebp),%eax
c0101670:	66 89 90 00 01 00 00 	mov    %dx,0x100(%eax)
c0101677:	c1 ea 10             	shr    $0x10,%edx
c010167a:	66 89 90 06 01 00 00 	mov    %dx,0x106(%eax)
c0101681:	ba e4 19 10 c0       	mov    $0xc01019e4,%edx
c0101686:	66 89 90 08 01 00 00 	mov    %dx,0x108(%eax)
c010168d:	c1 ea 10             	shr    $0x10,%edx
c0101690:	66 89 90 0e 01 00 00 	mov    %dx,0x10e(%eax)
c0101697:	ba f4 19 10 c0       	mov    $0xc01019f4,%edx
c010169c:	66 89 90 10 01 00 00 	mov    %dx,0x110(%eax)
c01016a3:	c1 ea 10             	shr    $0x10,%edx
c01016a6:	66 89 90 16 01 00 00 	mov    %dx,0x116(%eax)
c01016ad:	ba 04 1a 10 c0       	mov    $0xc0101a04,%edx
c01016b2:	66 89 90 18 01 00 00 	mov    %dx,0x118(%eax)
c01016b9:	c1 ea 10             	shr    $0x10,%edx
c01016bc:	66 89 90 1e 01 00 00 	mov    %dx,0x11e(%eax)
c01016c3:	ba 14 1a 10 c0       	mov    $0xc0101a14,%edx
c01016c8:	66 89 90 20 01 00 00 	mov    %dx,0x120(%eax)
c01016cf:	c1 ea 10             	shr    $0x10,%edx
c01016d2:	66 89 90 26 01 00 00 	mov    %dx,0x126(%eax)
c01016d9:	ba 24 1a 10 c0       	mov    $0xc0101a24,%edx
c01016de:	66 89 90 28 01 00 00 	mov    %dx,0x128(%eax)
c01016e5:	c1 ea 10             	shr    $0x10,%edx
c01016e8:	66 89 90 2e 01 00 00 	mov    %dx,0x12e(%eax)
c01016ef:	ba 34 1a 10 c0       	mov    $0xc0101a34,%edx
c01016f4:	66 89 90 30 01 00 00 	mov    %dx,0x130(%eax)
c01016fb:	c1 ea 10             	shr    $0x10,%edx
c01016fe:	66 89 90 36 01 00 00 	mov    %dx,0x136(%eax)
c0101705:	ba 44 1a 10 c0       	mov    $0xc0101a44,%edx
c010170a:	66 89 90 38 01 00 00 	mov    %dx,0x138(%eax)
c0101711:	c1 ea 10             	shr    $0x10,%edx
c0101714:	66 89 90 3e 01 00 00 	mov    %dx,0x13e(%eax)
c010171b:	ba 54 1a 10 c0       	mov    $0xc0101a54,%edx
c0101720:	66 89 90 40 01 00 00 	mov    %dx,0x140(%eax)
c0101727:	c1 ea 10             	shr    $0x10,%edx
c010172a:	66 89 90 46 01 00 00 	mov    %dx,0x146(%eax)
c0101731:	ba 64 1a 10 c0       	mov    $0xc0101a64,%edx
c0101736:	66 89 90 48 01 00 00 	mov    %dx,0x148(%eax)
c010173d:	c1 ea 10             	shr    $0x10,%edx
c0101740:	66 89 90 4e 01 00 00 	mov    %dx,0x14e(%eax)
c0101747:	ba 74 1a 10 c0       	mov    $0xc0101a74,%edx
c010174c:	c7 80 02 01 00 00 08 	movl   $0x8e000008,0x102(%eax)
c0101753:	00 00 8e 
c0101756:	c7 80 0a 01 00 00 08 	movl   $0x8e000008,0x10a(%eax)
c010175d:	00 00 8e 
c0101760:	c7 80 12 01 00 00 08 	movl   $0x8e000008,0x112(%eax)
c0101767:	00 00 8e 
c010176a:	c7 80 1a 01 00 00 08 	movl   $0x8e000008,0x11a(%eax)
c0101771:	00 00 8e 
c0101774:	c7 80 22 01 00 00 08 	movl   $0x8e000008,0x122(%eax)
c010177b:	00 00 8e 
c010177e:	c7 80 2a 01 00 00 08 	movl   $0x8e000008,0x12a(%eax)
c0101785:	00 00 8e 
c0101788:	c7 80 32 01 00 00 08 	movl   $0x8e000008,0x132(%eax)
c010178f:	00 00 8e 
c0101792:	c7 80 3a 01 00 00 08 	movl   $0x8e000008,0x13a(%eax)
c0101799:	00 00 8e 
c010179c:	c7 80 42 01 00 00 08 	movl   $0x8e000008,0x142(%eax)
c01017a3:	00 00 8e 
c01017a6:	c7 80 4a 01 00 00 08 	movl   $0x8e000008,0x14a(%eax)
c01017ad:	00 00 8e 
c01017b0:	66 89 90 50 01 00 00 	mov    %dx,0x150(%eax)
c01017b7:	c1 ea 10             	shr    $0x10,%edx
c01017ba:	66 89 90 56 01 00 00 	mov    %dx,0x156(%eax)
c01017c1:	ba 84 1a 10 c0       	mov    $0xc0101a84,%edx
c01017c6:	66 89 90 58 01 00 00 	mov    %dx,0x158(%eax)
c01017cd:	c1 ea 10             	shr    $0x10,%edx
c01017d0:	66 89 90 5e 01 00 00 	mov    %dx,0x15e(%eax)
c01017d7:	ba 94 1a 10 c0       	mov    $0xc0101a94,%edx
c01017dc:	66 89 90 60 01 00 00 	mov    %dx,0x160(%eax)
c01017e3:	c1 ea 10             	shr    $0x10,%edx
c01017e6:	66 89 90 66 01 00 00 	mov    %dx,0x166(%eax)
c01017ed:	ba a4 1a 10 c0       	mov    $0xc0101aa4,%edx
c01017f2:	66 89 90 68 01 00 00 	mov    %dx,0x168(%eax)
c01017f9:	c1 ea 10             	shr    $0x10,%edx
c01017fc:	66 89 90 6e 01 00 00 	mov    %dx,0x16e(%eax)
c0101803:	ba b4 1a 10 c0       	mov    $0xc0101ab4,%edx
c0101808:	66 89 90 70 01 00 00 	mov    %dx,0x170(%eax)
c010180f:	c1 ea 10             	shr    $0x10,%edx
c0101812:	66 89 90 76 01 00 00 	mov    %dx,0x176(%eax)
c0101819:	ba c4 1a 10 c0       	mov    $0xc0101ac4,%edx
c010181e:	66 89 90 78 01 00 00 	mov    %dx,0x178(%eax)
c0101825:	c1 ea 10             	shr    $0x10,%edx
c0101828:	c7 80 52 01 00 00 08 	movl   $0x8e000008,0x152(%eax)
c010182f:	00 00 8e 
c0101832:	c7 80 5a 01 00 00 08 	movl   $0x8e000008,0x15a(%eax)
c0101839:	00 00 8e 
c010183c:	66 89 88 62 01 00 00 	mov    %cx,0x162(%eax)
c0101843:	c6 80 65 01 00 00 8e 	movb   $0x8e,0x165(%eax)
c010184a:	c6 80 64 01 00 00 00 	movb   $0x0,0x164(%eax)
c0101851:	c7 80 6a 01 00 00 08 	movl   $0x8e000008,0x16a(%eax)
c0101858:	00 00 8e 
c010185b:	c7 80 72 01 00 00 08 	movl   $0x8e000008,0x172(%eax)
c0101862:	00 00 8e 
c0101865:	66 89 90 7e 01 00 00 	mov    %dx,0x17e(%eax)
c010186c:	c7 80 7a 01 00 00 08 	movl   $0x8e000008,0x17a(%eax)
c0101873:	00 00 8e 
c0101876:	5d                   	pop    %ebp
c0101877:	c3                   	ret    
c0101878:	8d b4 26 00 00 00 00 	lea    0x0(%esi,%eiz,1),%esi
c010187f:	90                   	nop

c0101880 <isr_handler>:
c0101880:	55                   	push   %ebp
c0101881:	89 e5                	mov    %esp,%ebp
c0101883:	53                   	push   %ebx
c0101884:	83 ec 04             	sub    $0x4,%esp
c0101887:	8b 5d 08             	mov    0x8(%ebp),%ebx
c010188a:	85 db                	test   %ebx,%ebx
c010188c:	74 32                	je     c01018c0 <isr_handler+0x40>
c010188e:	83 fb 01             	cmp    $0x1,%ebx
c0101891:	75 1a                	jne    c01018ad <isr_handler+0x2d>
c0101893:	83 ec 0c             	sub    $0xc,%esp
c0101896:	6a 60                	push   $0x60
c0101898:	e8 1b 01 00 00       	call   c01019b8 <inb>
c010189d:	5a                   	pop    %edx
c010189e:	59                   	pop    %ecx
c010189f:	50                   	push   %eax
c01018a0:	68 30 31 10 c0       	push   $0xc0103130
c01018a5:	e8 56 0a 00 00       	call   c0102300 <printf>
c01018aa:	83 c4 10             	add    $0x10,%esp
c01018ad:	89 5d 08             	mov    %ebx,0x8(%ebp)
c01018b0:	8b 5d fc             	mov    -0x4(%ebp),%ebx
c01018b3:	c9                   	leave  
c01018b4:	e9 37 05 00 00       	jmp    c0101df0 <PIC_sendEOI>
c01018b9:	8d b4 26 00 00 00 00 	lea    0x0(%esi,%eiz,1),%esi
c01018c0:	89 5d 08             	mov    %ebx,0x8(%ebp)
c01018c3:	8b 5d fc             	mov    -0x4(%ebp),%ebx
c01018c6:	83 05 10 c0 10 c0 01 	addl   $0x1,0xc010c010
c01018cd:	c9                   	leave  
c01018ce:	e9 1d 05 00 00       	jmp    c0101df0 <PIC_sendEOI>
c01018d3:	8d b4 26 00 00 00 00 	lea    0x0(%esi,%eiz,1),%esi
c01018da:	8d b6 00 00 00 00    	lea    0x0(%esi),%esi

c01018e0 <exception_handler>:
c01018e0:	55                   	push   %ebp
c01018e1:	89 e5                	mov    %esp,%ebp
c01018e3:	53                   	push   %ebx
c01018e4:	83 ec 04             	sub    $0x4,%esp
c01018e7:	8b 5d 08             	mov    0x8(%ebp),%ebx
c01018ea:	c6 05 04 40 10 c0 1f 	movb   $0x1f,0xc0104004
c01018f1:	e8 aa f8 ff ff       	call   c01011a0 <terminal_initialize>
c01018f6:	b8 34 31 10 c0       	mov    $0xc0103134,%eax
c01018fb:	83 fb 15             	cmp    $0x15,%ebx
c01018fe:	77 07                	ja     c0101907 <exception_handler+0x27>
c0101900:	8b 04 9d 20 40 10 c0 	mov    -0x3fefbfe0(,%ebx,4),%eax
c0101907:	ff 75 34             	push   0x34(%ebp)
c010190a:	ff 75 30             	push   0x30(%ebp)
c010190d:	50                   	push   %eax
c010190e:	68 46 31 10 c0       	push   $0xc0103146
c0101913:	e8 e8 09 00 00       	call   c0102300 <printf>
c0101918:	58                   	pop    %eax
c0101919:	5a                   	pop    %edx
c010191a:	ff 75 38             	push   0x38(%ebp)
c010191d:	68 5e 31 10 c0       	push   $0xc010315e
c0101922:	e8 d9 09 00 00       	call   c0102300 <printf>
c0101927:	59                   	pop    %ecx
c0101928:	5b                   	pop    %ebx
c0101929:	ff 75 2c             	push   0x2c(%ebp)
c010192c:	68 69 31 10 c0       	push   $0xc0103169
c0101931:	e8 ca 09 00 00       	call   c0102300 <printf>
c0101936:	58                   	pop    %eax
c0101937:	5a                   	pop    %edx
c0101938:	ff 75 28             	push   0x28(%ebp)
c010193b:	68 7a 31 10 c0       	push   $0xc010317a
c0101940:	e8 bb 09 00 00       	call   c0102300 <printf>
c0101945:	59                   	pop    %ecx
c0101946:	5b                   	pop    %ebx
c0101947:	ff 75 1c             	push   0x1c(%ebp)
c010194a:	68 83 31 10 c0       	push   $0xc0103183
c010194f:	e8 ac 09 00 00       	call   c0102300 <printf>
c0101954:	58                   	pop    %eax
c0101955:	5a                   	pop    %edx
c0101956:	ff 75 24             	push   0x24(%ebp)
c0101959:	68 8c 31 10 c0       	push   $0xc010318c
c010195e:	e8 9d 09 00 00       	call   c0102300 <printf>
c0101963:	59                   	pop    %ecx
c0101964:	5b                   	pop    %ebx
c0101965:	ff 75 20             	push   0x20(%ebp)
c0101968:	68 95 31 10 c0       	push   $0xc0103195
c010196d:	e8 8e 09 00 00       	call   c0102300 <printf>
c0101972:	58                   	pop    %eax
c0101973:	ff 75 10             	push   0x10(%ebp)
c0101976:	ff 75 0c             	push   0xc(%ebp)
c0101979:	ff 75 18             	push   0x18(%ebp)
c010197c:	ff 75 14             	push   0x14(%ebp)
c010197f:	68 54 33 10 c0       	push   $0xc0103354
c0101984:	e8 77 09 00 00       	call   c0102300 <printf>
c0101989:	83 c4 20             	add    $0x20,%esp
c010198c:	8d 74 26 00          	lea    0x0(%esi,%eiz,1),%esi
c0101990:	fa                   	cli    
c0101991:	f4                   	hlt    
c0101992:	eb fc                	jmp    c0101990 <exception_handler+0xb0>

c0101994 <outb>:
c0101994:	8b 44 24 08          	mov    0x8(%esp),%eax
c0101998:	8b 54 24 04          	mov    0x4(%esp),%edx
c010199c:	ee                   	out    %al,(%dx)
c010199d:	c3                   	ret    
c010199e:	66 90                	xchg   %ax,%ax

c01019a0 <outh>:
c01019a0:	8b 44 24 08          	mov    0x8(%esp),%eax
c01019a4:	8b 54 24 04          	mov    0x4(%esp),%edx
c01019a8:	66 ef                	out    %ax,(%dx)
c01019aa:	c3                   	ret    
c01019ab:	90                   	nop

c01019ac <out>:
c01019ac:	8b 44 24 08          	mov    0x8(%esp),%eax
c01019b0:	8b 54 24 04          	mov    0x4(%esp),%edx
c01019b4:	ef                   	out    %eax,(%dx)
c01019b5:	c3                   	ret    
c01019b6:	66 90                	xchg   %ax,%ax

c01019b8 <inb>:
c01019b8:	8b 54 24 04          	mov    0x4(%esp),%edx
c01019bc:	31 c0                	xor    %eax,%eax
c01019be:	ec                   	in     (%dx),%al
c01019bf:	c3                   	ret    

c01019c0 <inh>:
c01019c0:	8b 54 24 04          	mov    0x4(%esp),%edx
c01019c4:	31 c0                	xor    %eax,%eax
c01019c6:	66 ed                	in     (%dx),%ax
c01019c8:	c3                   	ret    
c01019c9:	8d 76 00             	lea    0x0(%esi),%esi

c01019cc <in>:
c01019cc:	8b 54 24 04          	mov    0x4(%esp),%edx
c01019d0:	31 c0                	xor    %eax,%eax
c01019d2:	ed                   	in     (%dx),%eax
c01019d3:	c3                   	ret    

c01019d4 <isr_wrapper0>:
c01019d4:	60                   	pusha  
c01019d5:	6a 00                	push   $0x0
c01019d7:	e8 a4 fe ff ff       	call   c0101880 <isr_handler>
c01019dc:	83 c4 04             	add    $0x4,%esp
c01019df:	61                   	popa   
c01019e0:	cf                   	iret   
c01019e1:	8d 76 00             	lea    0x0(%esi),%esi

c01019e4 <isr_wrapper1>:
c01019e4:	60                   	pusha  
c01019e5:	6a 01                	push   $0x1
c01019e7:	e8 94 fe ff ff       	call   c0101880 <isr_handler>
c01019ec:	83 c4 04             	add    $0x4,%esp
c01019ef:	61                   	popa   
c01019f0:	cf                   	iret   
c01019f1:	8d 76 00             	lea    0x0(%esi),%esi

c01019f4 <isr_wrapper2>:
c01019f4:	60                   	pusha  
c01019f5:	6a 02                	push   $0x2
c01019f7:	e8 84 fe ff ff       	call   c0101880 <isr_handler>
c01019fc:	83 c4 04             	add    $0x4,%esp
c01019ff:	61                   	popa   
c0101a00:	cf                   	iret   
c0101a01:	8d 76 00             	lea    0x0(%esi),%esi

c0101a04 <isr_wrapper3>:
c0101a04:	60                   	pusha  
c0101a05:	6a 03                	push   $0x3
c0101a07:	e8 74 fe ff ff       	call   c0101880 <isr_handler>
c0101a0c:	83 c4 04             	add    $0x4,%esp
c0101a0f:	61                   	popa   
c0101a10:	cf                   	iret   
c0101a11:	8d 76 00             	lea    0x0(%esi),%esi

c0101a14 <isr_wrapper4>:
c0101a14:	60                   	pusha  
c0101a15:	6a 04                	push   $0x4
c0101a17:	e8 64 fe ff ff       	call   c0101880 <isr_handler>
c0101a1c:	83 c4 04             	add    $0x4,%esp
c0101a1f:	61                   	popa   
c0101a20:	cf                   	iret   
c0101a21:	8d 76 00             	lea    0x0(%esi),%esi

c0101a24 <isr_wrapper5>:
c0101a24:	60                   	pusha  
c0101a25:	6a 05                	push   $0x5
c0101a27:	e8 54 fe ff ff       	call   c0101880 <isr_handler>
c0101a2c:	83 c4 04             	add    $0x4,%esp
c0101a2f:	61                   	popa   
c0101a30:	cf                   	iret   
c0101a31:	8d 76 00             	lea    0x0(%esi),%esi

c0101a34 <isr_wrapper6>:
c0101a34:	60                   	pusha  
c0101a35:	6a 06                	push   $0x6
c0101a37:	e8 44 fe ff ff       	call   c0101880 <isr_handler>
c0101a3c:	83 c4 04             	add    $0x4,%esp
c0101a3f:	61                   	popa   
c0101a40:	cf                   	iret   
c0101a41:	8d 76 00             	lea    0x0(%esi),%esi

c0101a44 <isr_wrapper7>:
c0101a44:	60                   	pusha  
c0101a45:	6a 07                	push   $0x7
c0101a47:	e8 34 fe ff ff       	call   c0101880 <isr_handler>
c0101a4c:	83 c4 04             	add    $0x4,%esp
c0101a4f:	61                   	popa   
c0101a50:	cf                   	iret   
c0101a51:	8d 76 00             	lea    0x0(%esi),%esi

c0101a54 <isr_wrapper8>:
c0101a54:	60                   	pusha  
c0101a55:	6a 08                	push   $0x8
c0101a57:	e8 24 fe ff ff       	call   c0101880 <isr_handler>
c0101a5c:	83 c4 04             	add    $0x4,%esp
c0101a5f:	61                   	popa   
c0101a60:	cf                   	iret   
c0101a61:	8d 76 00             	lea    0x0(%esi),%esi

c0101a64 <isr_wrapper9>:
c0101a64:	60                   	pusha  
c0101a65:	6a 09                	push   $0x9
c0101a67:	e8 14 fe ff ff       	call   c0101880 <isr_handler>
c0101a6c:	83 c4 04             	add    $0x4,%esp
c0101a6f:	61                   	popa   
c0101a70:	cf                   	iret   
c0101a71:	8d 76 00             	lea    0x0(%esi),%esi

c0101a74 <isr_wrapper10>:
c0101a74:	60                   	pusha  
c0101a75:	6a 0a                	push   $0xa
c0101a77:	e8 04 fe ff ff       	call   c0101880 <isr_handler>
c0101a7c:	83 c4 04             	add    $0x4,%esp
c0101a7f:	61                   	popa   
c0101a80:	cf                   	iret   
c0101a81:	8d 76 00             	lea    0x0(%esi),%esi

c0101a84 <isr_wrapper11>:
c0101a84:	60                   	pusha  
c0101a85:	6a 0b                	push   $0xb
c0101a87:	e8 f4 fd ff ff       	call   c0101880 <isr_handler>
c0101a8c:	83 c4 04             	add    $0x4,%esp
c0101a8f:	61                   	popa   
c0101a90:	cf                   	iret   
c0101a91:	8d 76 00             	lea    0x0(%esi),%esi

c0101a94 <isr_wrapper12>:
c0101a94:	60                   	pusha  
c0101a95:	6a 0c                	push   $0xc
c0101a97:	e8 e4 fd ff ff       	call   c0101880 <isr_handler>
c0101a9c:	83 c4 04             	add    $0x4,%esp
c0101a9f:	61                   	popa   
c0101aa0:	cf                   	iret   
c0101aa1:	8d 76 00             	lea    0x0(%esi),%esi

c0101aa4 <isr_wrapper13>:
c0101aa4:	60                   	pusha  
c0101aa5:	6a 0d                	push   $0xd
c0101aa7:	e8 d4 fd ff ff       	call   c0101880 <isr_handler>
c0101aac:	83 c4 04             	add    $0x4,%esp
c0101aaf:	61                   	popa   
c0101ab0:	cf                   	iret   
c0101ab1:	8d 76 00             	lea    0x0(%esi),%esi

c0101ab4 <isr_wrapper14>:
c0101ab4:	60                   	pusha  
c0101ab5:	6a 0e                	push   $0xe
c0101ab7:	e8 c4 fd ff ff       	call   c0101880 <isr_handler>
c0101abc:	83 c4 04             	add    $0x4,%esp
c0101abf:	61                   	popa   
c0101ac0:	cf                   	iret   
c0101ac1:	8d 76 00             	lea    0x0(%esi),%esi

c0101ac4 <isr_wrapper15>:
c0101ac4:	60                   	pusha  
c0101ac5:	6a 0f                	push   $0xf
c0101ac7:	e8 b4 fd ff ff       	call   c0101880 <isr_handler>
c0101acc:	83 c4 04             	add    $0x4,%esp
c0101acf:	61                   	popa   
c0101ad0:	cf                   	iret   
c0101ad1:	66 90                	xchg   %ax,%ax
c0101ad3:	66 90                	xchg   %ax,%ax
c0101ad5:	66 90                	xchg   %ax,%ax
c0101ad7:	66 90                	xchg   %ax,%ax
c0101ad9:	66 90                	xchg   %ax,%ax
c0101adb:	66 90                	xchg   %ax,%ax
c0101add:	66 90                	xchg   %ax,%ax
c0101adf:	90                   	nop

c0101ae0 <kernel_main>:
c0101ae0:	55                   	push   %ebp
c0101ae1:	89 e5                	mov    %esp,%ebp
c0101ae3:	53                   	push   %ebx
c0101ae4:	83 ec 04             	sub    $0x4,%esp
c0101ae7:	81 7d 08 02 b0 ad 2b 	cmpl   $0x2badb002,0x8(%ebp)
c0101aee:	8b 5d 0c             	mov    0xc(%ebp),%ebx
c0101af1:	0f 85 b9 00 00 00    	jne    c0101bb0 <kernel_main+0xd0>
c0101af7:	f6 03 40             	testb  $0x40,(%ebx)
c0101afa:	0f 84 a0 00 00 00    	je     c0101ba0 <kernel_main+0xc0>
c0101b00:	83 ec 08             	sub    $0x8,%esp
c0101b03:	6a 28                	push   $0x28
c0101b05:	6a 20                	push   $0x20
c0101b07:	e8 24 03 00 00       	call   c0101e30 <PIC_remap>
c0101b0c:	e8 8f f6 ff ff       	call   c01011a0 <terminal_initialize>
c0101b11:	c7 04 24 20 c0 10 c0 	movl   $0xc010c020,(%esp)
c0101b18:	e8 c3 f8 ff ff       	call   c01013e0 <idt_initialize>
c0101b1d:	c7 04 24 20 c0 10 c0 	movl   $0xc010c020,(%esp)
c0101b24:	e8 f7 f8 ff ff       	call   c0101420 <idt_init_exception_handlers>
c0101b29:	c7 04 24 20 c0 10 c0 	movl   $0xc010c020,(%esp)
c0101b30:	e8 2b fb ff ff       	call   c0101660 <idt_init_interrupt_handlers>
c0101b35:	b8 ff 07 00 00       	mov    $0x7ff,%eax
c0101b3a:	c7 05 16 c0 10 c0 20 	movl   $0xc010c020,0xc010c016
c0101b41:	c0 10 c0 
c0101b44:	66 a3 14 c0 10 c0    	mov    %ax,0xc010c014
c0101b4a:	0f 01 1d 14 c0 10 c0 	lidtl  0xc010c014
c0101b51:	fb                   	sti    
c0101b52:	5a                   	pop    %edx
c0101b53:	59                   	pop    %ecx
c0101b54:	6a 03                	push   $0x3
c0101b56:	68 f8 03 00 00       	push   $0x3f8
c0101b5b:	e8 60 01 00 00       	call   c0101cc0 <init_serial>
c0101b60:	c7 04 24 17 33 10 c0 	movl   $0xc0103317,(%esp)
c0101b67:	e8 94 07 00 00       	call   c0102300 <printf>
c0101b6c:	58                   	pop    %eax
c0101b6d:	b8 ab aa aa aa       	mov    $0xaaaaaaab,%eax
c0101b72:	5a                   	pop    %edx
c0101b73:	f7 63 2c             	mull   0x2c(%ebx)
c0101b76:	c1 ea 04             	shr    $0x4,%edx
c0101b79:	52                   	push   %edx
c0101b7a:	8b 43 30             	mov    0x30(%ebx),%eax
c0101b7d:	2d 00 00 00 40       	sub    $0x40000000,%eax
c0101b82:	50                   	push   %eax
c0101b83:	e8 68 04 00 00       	call   c0101ff0 <init_page_frame_allocator>
c0101b88:	8b 5d fc             	mov    -0x4(%ebp),%ebx
c0101b8b:	83 c4 10             	add    $0x10,%esp
c0101b8e:	c9                   	leave  
c0101b8f:	e9 ac 05 00 00       	jmp    c0102140 <init_heap>
c0101b94:	8d b4 26 00 00 00 00 	lea    0x0(%esi,%eiz,1),%esi
c0101b9b:	8d 74 26 00          	lea    0x0(%esi,%eiz,1),%esi
c0101b9f:	90                   	nop
c0101ba0:	c7 45 08 80 34 10 c0 	movl   $0xc0103480,0x8(%ebp)
c0101ba7:	8b 5d fc             	mov    -0x4(%ebp),%ebx
c0101baa:	c9                   	leave  
c0101bab:	e9 50 07 00 00       	jmp    c0102300 <printf>
c0101bb0:	c7 45 08 58 34 10 c0 	movl   $0xc0103458,0x8(%ebp)
c0101bb7:	8b 5d fc             	mov    -0x4(%ebp),%ebx
c0101bba:	c9                   	leave  
c0101bbb:	e9 40 07 00 00       	jmp    c0102300 <printf>

c0101bc0 <is_transmit_empty>:
c0101bc0:	55                   	push   %ebp
c0101bc1:	89 e5                	mov    %esp,%ebp
c0101bc3:	83 ec 14             	sub    $0x14,%esp
c0101bc6:	8b 45 08             	mov    0x8(%ebp),%eax
c0101bc9:	83 c0 05             	add    $0x5,%eax
c0101bcc:	50                   	push   %eax
c0101bcd:	e8 e6 fd ff ff       	call   c01019b8 <inb>
c0101bd2:	c9                   	leave  
c0101bd3:	83 e0 20             	and    $0x20,%eax
c0101bd6:	c3                   	ret    
c0101bd7:	8d b4 26 00 00 00 00 	lea    0x0(%esi,%eiz,1),%esi
c0101bde:	66 90                	xchg   %ax,%ax

c0101be0 <serial_putchar>:
c0101be0:	55                   	push   %ebp
c0101be1:	89 e5                	mov    %esp,%ebp
c0101be3:	57                   	push   %edi
c0101be4:	56                   	push   %esi
c0101be5:	53                   	push   %ebx
c0101be6:	83 ec 0c             	sub    $0xc,%esp
c0101be9:	8b 7d 08             	mov    0x8(%ebp),%edi
c0101bec:	8b 75 0c             	mov    0xc(%ebp),%esi
c0101bef:	8d 5f 05             	lea    0x5(%edi),%ebx
c0101bf2:	8d b4 26 00 00 00 00 	lea    0x0(%esi,%eiz,1),%esi
c0101bf9:	8d b4 26 00 00 00 00 	lea    0x0(%esi,%eiz,1),%esi
c0101c00:	83 ec 0c             	sub    $0xc,%esp
c0101c03:	53                   	push   %ebx
c0101c04:	e8 af fd ff ff       	call   c01019b8 <inb>
c0101c09:	83 c4 10             	add    $0x10,%esp
c0101c0c:	a8 20                	test   $0x20,%al
c0101c0e:	74 f0                	je     c0101c00 <serial_putchar+0x20>
c0101c10:	89 f0                	mov    %esi,%eax
c0101c12:	89 7d 08             	mov    %edi,0x8(%ebp)
c0101c15:	0f be f0             	movsbl %al,%esi
c0101c18:	89 75 0c             	mov    %esi,0xc(%ebp)
c0101c1b:	8d 65 f4             	lea    -0xc(%ebp),%esp
c0101c1e:	5b                   	pop    %ebx
c0101c1f:	5e                   	pop    %esi
c0101c20:	5f                   	pop    %edi
c0101c21:	5d                   	pop    %ebp
c0101c22:	e9 6d fd ff ff       	jmp    c0101994 <outb>
c0101c27:	8d b4 26 00 00 00 00 	lea    0x0(%esi,%eiz,1),%esi
c0101c2e:	66 90                	xchg   %ax,%ax

c0101c30 <serial_puts>:
c0101c30:	55                   	push   %ebp
c0101c31:	89 e5                	mov    %esp,%ebp
c0101c33:	57                   	push   %edi
c0101c34:	56                   	push   %esi
c0101c35:	53                   	push   %ebx
c0101c36:	83 ec 1c             	sub    $0x1c,%esp
c0101c39:	8b 7d 0c             	mov    0xc(%ebp),%edi
c0101c3c:	8b 45 08             	mov    0x8(%ebp),%eax
c0101c3f:	0f b6 37             	movzbl (%edi),%esi
c0101c42:	89 45 e4             	mov    %eax,-0x1c(%ebp)
c0101c45:	8d 58 05             	lea    0x5(%eax),%ebx
c0101c48:	89 f0                	mov    %esi,%eax
c0101c4a:	84 c0                	test   %al,%al
c0101c4c:	74 42                	je     c0101c90 <serial_puts+0x60>
c0101c4e:	66 90                	xchg   %ax,%ax
c0101c50:	83 c7 01             	add    $0x1,%edi
c0101c53:	8d b4 26 00 00 00 00 	lea    0x0(%esi,%eiz,1),%esi
c0101c5a:	8d b6 00 00 00 00    	lea    0x0(%esi),%esi
c0101c60:	83 ec 0c             	sub    $0xc,%esp
c0101c63:	53                   	push   %ebx
c0101c64:	e8 4f fd ff ff       	call   c01019b8 <inb>
c0101c69:	83 c4 10             	add    $0x10,%esp
c0101c6c:	a8 20                	test   $0x20,%al
c0101c6e:	74 f0                	je     c0101c60 <serial_puts+0x30>
c0101c70:	89 f0                	mov    %esi,%eax
c0101c72:	83 ec 08             	sub    $0x8,%esp
c0101c75:	0f be f0             	movsbl %al,%esi
c0101c78:	56                   	push   %esi
c0101c79:	ff 75 e4             	push   -0x1c(%ebp)
c0101c7c:	e8 13 fd ff ff       	call   c0101994 <outb>
c0101c81:	0f b6 37             	movzbl (%edi),%esi
c0101c84:	83 c4 10             	add    $0x10,%esp
c0101c87:	89 f0                	mov    %esi,%eax
c0101c89:	84 c0                	test   %al,%al
c0101c8b:	75 c3                	jne    c0101c50 <serial_puts+0x20>
c0101c8d:	8d 76 00             	lea    0x0(%esi),%esi
c0101c90:	83 ec 0c             	sub    $0xc,%esp
c0101c93:	53                   	push   %ebx
c0101c94:	e8 1f fd ff ff       	call   c01019b8 <inb>
c0101c99:	83 c4 10             	add    $0x10,%esp
c0101c9c:	a8 20                	test   $0x20,%al
c0101c9e:	74 f0                	je     c0101c90 <serial_puts+0x60>
c0101ca0:	8b 45 e4             	mov    -0x1c(%ebp),%eax
c0101ca3:	c7 45 0c 0a 00 00 00 	movl   $0xa,0xc(%ebp)
c0101caa:	89 45 08             	mov    %eax,0x8(%ebp)
c0101cad:	8d 65 f4             	lea    -0xc(%ebp),%esp
c0101cb0:	5b                   	pop    %ebx
c0101cb1:	5e                   	pop    %esi
c0101cb2:	5f                   	pop    %edi
c0101cb3:	5d                   	pop    %ebp
c0101cb4:	e9 db fc ff ff       	jmp    c0101994 <outb>
c0101cb9:	8d b4 26 00 00 00 00 	lea    0x0(%esi,%eiz,1),%esi

c0101cc0 <init_serial>:
c0101cc0:	55                   	push   %ebp
c0101cc1:	89 e5                	mov    %esp,%ebp
c0101cc3:	57                   	push   %edi
c0101cc4:	56                   	push   %esi
c0101cc5:	53                   	push   %ebx
c0101cc6:	83 ec 20             	sub    $0x20,%esp
c0101cc9:	8b 5d 08             	mov    0x8(%ebp),%ebx
c0101ccc:	8b 75 0c             	mov    0xc(%ebp),%esi
c0101ccf:	56                   	push   %esi
c0101cd0:	8d 7b 03             	lea    0x3(%ebx),%edi
c0101cd3:	53                   	push   %ebx
c0101cd4:	68 ac 34 10 c0       	push   $0xc01034ac
c0101cd9:	e8 22 06 00 00       	call   c0102300 <printf>
c0101cde:	8d 43 01             	lea    0x1(%ebx),%eax
c0101ce1:	5a                   	pop    %edx
c0101ce2:	59                   	pop    %ecx
c0101ce3:	6a 00                	push   $0x0
c0101ce5:	50                   	push   %eax
c0101ce6:	89 45 e4             	mov    %eax,-0x1c(%ebp)
c0101ce9:	e8 a6 fc ff ff       	call   c0101994 <outb>
c0101cee:	58                   	pop    %eax
c0101cef:	5a                   	pop    %edx
c0101cf0:	68 80 00 00 00       	push   $0x80
c0101cf5:	57                   	push   %edi
c0101cf6:	e8 99 fc ff ff       	call   c0101994 <outb>
c0101cfb:	59                   	pop    %ecx
c0101cfc:	58                   	pop    %eax
c0101cfd:	89 f0                	mov    %esi,%eax
c0101cff:	0f b6 d0             	movzbl %al,%edx
c0101d02:	c1 fe 08             	sar    $0x8,%esi
c0101d05:	52                   	push   %edx
c0101d06:	53                   	push   %ebx
c0101d07:	e8 88 fc ff ff       	call   c0101994 <outb>
c0101d0c:	58                   	pop    %eax
c0101d0d:	8b 45 e4             	mov    -0x1c(%ebp),%eax
c0101d10:	5a                   	pop    %edx
c0101d11:	56                   	push   %esi
c0101d12:	50                   	push   %eax
c0101d13:	e8 7c fc ff ff       	call   c0101994 <outb>
c0101d18:	59                   	pop    %ecx
c0101d19:	5e                   	pop    %esi
c0101d1a:	6a 03                	push   $0x3
c0101d1c:	57                   	push   %edi
c0101d1d:	8d 73 04             	lea    0x4(%ebx),%esi
c0101d20:	e8 6f fc ff ff       	call   c0101994 <outb>
c0101d25:	5f                   	pop    %edi
c0101d26:	58                   	pop    %eax
c0101d27:	8d 43 02             	lea    0x2(%ebx),%eax
c0101d2a:	68 c7 00 00 00       	push   $0xc7
c0101d2f:	50                   	push   %eax
c0101d30:	e8 5f fc ff ff       	call   c0101994 <outb>
c0101d35:	58                   	pop    %eax
c0101d36:	5a                   	pop    %edx
c0101d37:	6a 0b                	push   $0xb
c0101d39:	56                   	push   %esi
c0101d3a:	e8 55 fc ff ff       	call   c0101994 <outb>
c0101d3f:	59                   	pop    %ecx
c0101d40:	5f                   	pop    %edi
c0101d41:	6a 1e                	push   $0x1e
c0101d43:	56                   	push   %esi
c0101d44:	e8 4b fc ff ff       	call   c0101994 <outb>
c0101d49:	58                   	pop    %eax
c0101d4a:	5a                   	pop    %edx
c0101d4b:	68 ca 00 00 00       	push   $0xca
c0101d50:	53                   	push   %ebx
c0101d51:	e8 3e fc ff ff       	call   c0101994 <outb>
c0101d56:	89 1c 24             	mov    %ebx,(%esp)
c0101d59:	e8 5a fc ff ff       	call   c01019b8 <inb>
c0101d5e:	83 c4 10             	add    $0x10,%esp
c0101d61:	3d ca 00 00 00       	cmp    $0xca,%eax
c0101d66:	75 78                	jne    c0101de0 <init_serial+0x120>
c0101d68:	83 ec 08             	sub    $0x8,%esp
c0101d6b:	68 fe 00 00 00       	push   $0xfe
c0101d70:	53                   	push   %ebx
c0101d71:	e8 1e fc ff ff       	call   c0101994 <outb>
c0101d76:	89 1c 24             	mov    %ebx,(%esp)
c0101d79:	e8 3a fc ff ff       	call   c01019b8 <inb>
c0101d7e:	83 c4 10             	add    $0x10,%esp
c0101d81:	3d fe 00 00 00       	cmp    $0xfe,%eax
c0101d86:	75 58                	jne    c0101de0 <init_serial+0x120>
c0101d88:	83 ec 08             	sub    $0x8,%esp
c0101d8b:	68 ba 00 00 00       	push   $0xba
c0101d90:	53                   	push   %ebx
c0101d91:	e8 fe fb ff ff       	call   c0101994 <outb>
c0101d96:	89 1c 24             	mov    %ebx,(%esp)
c0101d99:	e8 1a fc ff ff       	call   c01019b8 <inb>
c0101d9e:	83 c4 10             	add    $0x10,%esp
c0101da1:	3d ba 00 00 00       	cmp    $0xba,%eax
c0101da6:	75 38                	jne    c0101de0 <init_serial+0x120>
c0101da8:	83 ec 08             	sub    $0x8,%esp
c0101dab:	68 be 00 00 00       	push   $0xbe
c0101db0:	53                   	push   %ebx
c0101db1:	e8 de fb ff ff       	call   c0101994 <outb>
c0101db6:	89 1c 24             	mov    %ebx,(%esp)
c0101db9:	e8 fa fb ff ff       	call   c01019b8 <inb>
c0101dbe:	83 c4 10             	add    $0x10,%esp
c0101dc1:	3d be 00 00 00       	cmp    $0xbe,%eax
c0101dc6:	75 18                	jne    c0101de0 <init_serial+0x120>
c0101dc8:	83 ec 08             	sub    $0x8,%esp
c0101dcb:	6a 0f                	push   $0xf
c0101dcd:	56                   	push   %esi
c0101dce:	e8 c1 fb ff ff       	call   c0101994 <outb>
c0101dd3:	83 c4 10             	add    $0x10,%esp
c0101dd6:	8d 65 f4             	lea    -0xc(%ebp),%esp
c0101dd9:	31 c0                	xor    %eax,%eax
c0101ddb:	5b                   	pop    %ebx
c0101ddc:	5e                   	pop    %esi
c0101ddd:	5f                   	pop    %edi
c0101dde:	5d                   	pop    %ebp
c0101ddf:	c3                   	ret    
c0101de0:	8d 65 f4             	lea    -0xc(%ebp),%esp
c0101de3:	b8 ff ff ff ff       	mov    $0xffffffff,%eax
c0101de8:	5b                   	pop    %ebx
c0101de9:	5e                   	pop    %esi
c0101dea:	5f                   	pop    %edi
c0101deb:	5d                   	pop    %ebp
c0101dec:	c3                   	ret    
c0101ded:	66 90                	xchg   %ax,%ax
c0101def:	90                   	nop

c0101df0 <PIC_sendEOI>:
c0101df0:	55                   	push   %ebp
c0101df1:	89 e5                	mov    %esp,%ebp
c0101df3:	83 ec 08             	sub    $0x8,%esp
c0101df6:	83 7d 08 07          	cmpl   $0x7,0x8(%ebp)
c0101dfa:	7f 14                	jg     c0101e10 <PIC_sendEOI+0x20>
c0101dfc:	83 ec 08             	sub    $0x8,%esp
c0101dff:	6a 20                	push   $0x20
c0101e01:	6a 20                	push   $0x20
c0101e03:	e8 8c fb ff ff       	call   c0101994 <outb>
c0101e08:	83 c4 10             	add    $0x10,%esp
c0101e0b:	c9                   	leave  
c0101e0c:	c3                   	ret    
c0101e0d:	8d 76 00             	lea    0x0(%esi),%esi
c0101e10:	83 ec 08             	sub    $0x8,%esp
c0101e13:	6a 20                	push   $0x20
c0101e15:	68 a0 00 00 00       	push   $0xa0
c0101e1a:	e8 75 fb ff ff       	call   c0101994 <outb>
c0101e1f:	83 c4 10             	add    $0x10,%esp
c0101e22:	eb d8                	jmp    c0101dfc <PIC_sendEOI+0xc>
c0101e24:	8d b4 26 00 00 00 00 	lea    0x0(%esi,%eiz,1),%esi
c0101e2b:	8d 74 26 00          	lea    0x0(%esi,%eiz,1),%esi
c0101e2f:	90                   	nop

c0101e30 <PIC_remap>:
c0101e30:	55                   	push   %ebp
c0101e31:	89 e5                	mov    %esp,%ebp
c0101e33:	57                   	push   %edi
c0101e34:	56                   	push   %esi
c0101e35:	53                   	push   %ebx
c0101e36:	83 ec 28             	sub    $0x28,%esp
c0101e39:	8b 75 08             	mov    0x8(%ebp),%esi
c0101e3c:	8b 7d 0c             	mov    0xc(%ebp),%edi
c0101e3f:	6a 21                	push   $0x21
c0101e41:	e8 72 fb ff ff       	call   c01019b8 <inb>
c0101e46:	c7 04 24 a1 00 00 00 	movl   $0xa1,(%esp)
c0101e4d:	89 45 e4             	mov    %eax,-0x1c(%ebp)
c0101e50:	e8 63 fb ff ff       	call   c01019b8 <inb>
c0101e55:	89 c3                	mov    %eax,%ebx
c0101e57:	58                   	pop    %eax
c0101e58:	5a                   	pop    %edx
c0101e59:	6a 11                	push   $0x11
c0101e5b:	6a 20                	push   $0x20
c0101e5d:	0f b6 db             	movzbl %bl,%ebx
c0101e60:	e8 2f fb ff ff       	call   c0101994 <outb>
c0101e65:	59                   	pop    %ecx
c0101e66:	58                   	pop    %eax
c0101e67:	6a 11                	push   $0x11
c0101e69:	68 a0 00 00 00       	push   $0xa0
c0101e6e:	e8 21 fb ff ff       	call   c0101994 <outb>
c0101e73:	58                   	pop    %eax
c0101e74:	5a                   	pop    %edx
c0101e75:	56                   	push   %esi
c0101e76:	6a 21                	push   $0x21
c0101e78:	e8 17 fb ff ff       	call   c0101994 <outb>
c0101e7d:	59                   	pop    %ecx
c0101e7e:	5e                   	pop    %esi
c0101e7f:	57                   	push   %edi
c0101e80:	68 a1 00 00 00       	push   $0xa1
c0101e85:	e8 0a fb ff ff       	call   c0101994 <outb>
c0101e8a:	5f                   	pop    %edi
c0101e8b:	58                   	pop    %eax
c0101e8c:	6a 04                	push   $0x4
c0101e8e:	6a 21                	push   $0x21
c0101e90:	e8 ff fa ff ff       	call   c0101994 <outb>
c0101e95:	58                   	pop    %eax
c0101e96:	5a                   	pop    %edx
c0101e97:	6a 02                	push   $0x2
c0101e99:	68 a1 00 00 00       	push   $0xa1
c0101e9e:	e8 f1 fa ff ff       	call   c0101994 <outb>
c0101ea3:	59                   	pop    %ecx
c0101ea4:	5e                   	pop    %esi
c0101ea5:	6a 01                	push   $0x1
c0101ea7:	6a 21                	push   $0x21
c0101ea9:	e8 e6 fa ff ff       	call   c0101994 <outb>
c0101eae:	5f                   	pop    %edi
c0101eaf:	58                   	pop    %eax
c0101eb0:	6a 01                	push   $0x1
c0101eb2:	68 a1 00 00 00       	push   $0xa1
c0101eb7:	e8 d8 fa ff ff       	call   c0101994 <outb>
c0101ebc:	0f b6 75 e4          	movzbl -0x1c(%ebp),%esi
c0101ec0:	58                   	pop    %eax
c0101ec1:	5a                   	pop    %edx
c0101ec2:	56                   	push   %esi
c0101ec3:	6a 21                	push   $0x21
c0101ec5:	e8 ca fa ff ff       	call   c0101994 <outb>
c0101eca:	89 5d 0c             	mov    %ebx,0xc(%ebp)
c0101ecd:	83 c4 10             	add    $0x10,%esp
c0101ed0:	c7 45 08 a1 00 00 00 	movl   $0xa1,0x8(%ebp)
c0101ed7:	8d 65 f4             	lea    -0xc(%ebp),%esp
c0101eda:	5b                   	pop    %ebx
c0101edb:	5e                   	pop    %esi
c0101edc:	5f                   	pop    %edi
c0101edd:	5d                   	pop    %ebp
c0101ede:	e9 b1 fa ff ff       	jmp    c0101994 <outb>
c0101ee3:	66 90                	xchg   %ax,%ax
c0101ee5:	66 90                	xchg   %ax,%ax
c0101ee7:	66 90                	xchg   %ax,%ax
c0101ee9:	66 90                	xchg   %ax,%ax
c0101eeb:	66 90                	xchg   %ax,%ax
c0101eed:	66 90                	xchg   %ax,%ax
c0101eef:	90                   	nop

c0101ef0 <set_page_frames>:
c0101ef0:	55                   	push   %ebp
c0101ef1:	89 e5                	mov    %esp,%ebp
c0101ef3:	57                   	push   %edi
c0101ef4:	56                   	push   %esi
c0101ef5:	53                   	push   %ebx
c0101ef6:	89 c3                	mov    %eax,%ebx
c0101ef8:	89 c8                	mov    %ecx,%eax
c0101efa:	c1 eb 0c             	shr    $0xc,%ebx
c0101efd:	89 d9                	mov    %ebx,%ecx
c0101eff:	83 ec 08             	sub    $0x8,%esp
c0101f02:	89 55 f0             	mov    %edx,-0x10(%ebp)
c0101f05:	83 f8 7f             	cmp    $0x7f,%eax
c0101f08:	0f 86 92 00 00 00    	jbe    c0101fa0 <set_page_frames+0xb0>
c0101f0e:	89 da                	mov    %ebx,%edx
c0101f10:	f7 da                	neg    %edx
c0101f12:	83 e2 1f             	and    $0x1f,%edx
c0101f15:	29 d0                	sub    %edx,%eax
c0101f17:	89 45 ec             	mov    %eax,-0x14(%ebp)
c0101f1a:	85 d2                	test   %edx,%edx
c0101f1c:	0f 84 c6 00 00 00    	je     c0101fe8 <set_page_frames+0xf8>
c0101f22:	8d 3c 13             	lea    (%ebx,%edx,1),%edi
c0101f25:	bb 01 00 00 00       	mov    $0x1,%ebx
c0101f2a:	8d b6 00 00 00 00    	lea    0x0(%esi),%esi
c0101f30:	89 ca                	mov    %ecx,%edx
c0101f32:	89 d8                	mov    %ebx,%eax
c0101f34:	c1 ea 05             	shr    $0x5,%edx
c0101f37:	d3 e0                	shl    %cl,%eax
c0101f39:	8b 34 95 28 c8 10 c0 	mov    -0x3fef37d8(,%edx,4),%esi
c0101f40:	09 c6                	or     %eax,%esi
c0101f42:	f7 d0                	not    %eax
c0101f44:	23 04 95 28 c8 10 c0 	and    -0x3fef37d8(,%edx,4),%eax
c0101f4b:	83 7d f0 00          	cmpl   $0x0,-0x10(%ebp)
c0101f4f:	0f 45 c6             	cmovne %esi,%eax
c0101f52:	83 c1 01             	add    $0x1,%ecx
c0101f55:	89 04 95 28 c8 10 c0 	mov    %eax,-0x3fef37d8(,%edx,4)
c0101f5c:	39 cf                	cmp    %ecx,%edi
c0101f5e:	75 d0                	jne    c0101f30 <set_page_frames+0x40>
c0101f60:	8b 45 ec             	mov    -0x14(%ebp),%eax
c0101f63:	8b 5d f0             	mov    -0x10(%ebp),%ebx
c0101f66:	8d 70 e0             	lea    -0x20(%eax),%esi
c0101f69:	f7 db                	neg    %ebx
c0101f6b:	89 f0                	mov    %esi,%eax
c0101f6d:	83 e0 e0             	and    $0xffffffe0,%eax
c0101f70:	8d 4c 07 20          	lea    0x20(%edi,%eax,1),%ecx
c0101f74:	89 f8                	mov    %edi,%eax
c0101f76:	8d b4 26 00 00 00 00 	lea    0x0(%esi,%eiz,1),%esi
c0101f7d:	8d 76 00             	lea    0x0(%esi),%esi
c0101f80:	89 c2                	mov    %eax,%edx
c0101f82:	83 c0 20             	add    $0x20,%eax
c0101f85:	c1 ea 05             	shr    $0x5,%edx
c0101f88:	89 1c 95 28 c8 10 c0 	mov    %ebx,-0x3fef37d8(,%edx,4)
c0101f8f:	39 c1                	cmp    %eax,%ecx
c0101f91:	75 ed                	jne    c0101f80 <set_page_frames+0x90>
c0101f93:	8b 45 ec             	mov    -0x14(%ebp),%eax
c0101f96:	83 e6 e0             	and    $0xffffffe0,%esi
c0101f99:	8d 4c 37 20          	lea    0x20(%edi,%esi,1),%ecx
c0101f9d:	83 e0 1f             	and    $0x1f,%eax
c0101fa0:	8d 34 08             	lea    (%eax,%ecx,1),%esi
c0101fa3:	bb 01 00 00 00       	mov    $0x1,%ebx
c0101fa8:	85 c0                	test   %eax,%eax
c0101faa:	74 34                	je     c0101fe0 <set_page_frames+0xf0>
c0101fac:	8d 74 26 00          	lea    0x0(%esi,%eiz,1),%esi
c0101fb0:	89 ca                	mov    %ecx,%edx
c0101fb2:	89 d8                	mov    %ebx,%eax
c0101fb4:	c1 ea 05             	shr    $0x5,%edx
c0101fb7:	d3 e0                	shl    %cl,%eax
c0101fb9:	8b 3c 95 28 c8 10 c0 	mov    -0x3fef37d8(,%edx,4),%edi
c0101fc0:	09 c7                	or     %eax,%edi
c0101fc2:	f7 d0                	not    %eax
c0101fc4:	23 04 95 28 c8 10 c0 	and    -0x3fef37d8(,%edx,4),%eax
c0101fcb:	83 7d f0 00          	cmpl   $0x0,-0x10(%ebp)
c0101fcf:	0f 45 c7             	cmovne %edi,%eax
c0101fd2:	83 c1 01             	add    $0x1,%ecx
c0101fd5:	89 04 95 28 c8 10 c0 	mov    %eax,-0x3fef37d8(,%edx,4)
c0101fdc:	39 ce                	cmp    %ecx,%esi
c0101fde:	75 d0                	jne    c0101fb0 <set_page_frames+0xc0>
c0101fe0:	83 c4 08             	add    $0x8,%esp
c0101fe3:	5b                   	pop    %ebx
c0101fe4:	5e                   	pop    %esi
c0101fe5:	5f                   	pop    %edi
c0101fe6:	5d                   	pop    %ebp
c0101fe7:	c3                   	ret    
c0101fe8:	89 df                	mov    %ebx,%edi
c0101fea:	e9 71 ff ff ff       	jmp    c0101f60 <set_page_frames+0x70>
c0101fef:	90                   	nop

c0101ff0 <init_page_frame_allocator>:
c0101ff0:	55                   	push   %ebp
c0101ff1:	89 e5                	mov    %esp,%ebp
c0101ff3:	57                   	push   %edi
c0101ff4:	56                   	push   %esi
c0101ff5:	53                   	push   %ebx
c0101ff6:	83 ec 20             	sub    $0x20,%esp
c0101ff9:	68 fc ff 0f 00       	push   $0xffffc
c0101ffe:	6a 00                	push   $0x0
c0102000:	68 28 c8 10 c0       	push   $0xc010c828
c0102005:	e8 86 09 00 00       	call   c0102990 <memset>
c010200a:	8b 45 0c             	mov    0xc(%ebp),%eax
c010200d:	83 c4 10             	add    $0x10,%esp
c0102010:	85 c0                	test   %eax,%eax
c0102012:	74 5b                	je     c010206f <init_page_frame_allocator+0x7f>
c0102014:	8b 45 08             	mov    0x8(%ebp),%eax
c0102017:	31 ff                	xor    %edi,%edi
c0102019:	8d 58 04             	lea    0x4(%eax),%ebx
c010201c:	eb 0d                	jmp    c010202b <init_page_frame_allocator+0x3b>
c010201e:	66 90                	xchg   %ax,%ax
c0102020:	83 c7 01             	add    $0x1,%edi
c0102023:	83 c3 18             	add    $0x18,%ebx
c0102026:	39 7d 0c             	cmp    %edi,0xc(%ebp)
c0102029:	74 44                	je     c010206f <init_page_frame_allocator+0x7f>
c010202b:	83 7b 10 01          	cmpl   $0x1,0x10(%ebx)
c010202f:	75 ef                	jne    c0102020 <init_page_frame_allocator+0x30>
c0102031:	8b 33                	mov    (%ebx),%esi
c0102033:	8b 53 08             	mov    0x8(%ebx),%edx
c0102036:	83 c7 01             	add    $0x1,%edi
c0102039:	83 c3 18             	add    $0x18,%ebx
c010203c:	89 f0                	mov    %esi,%eax
c010203e:	89 d1                	mov    %edx,%ecx
c0102040:	89 55 e4             	mov    %edx,-0x1c(%ebp)
c0102043:	ba 01 00 00 00       	mov    $0x1,%edx
c0102048:	f7 d8                	neg    %eax
c010204a:	25 ff 0f 00 00       	and    $0xfff,%eax
c010204f:	29 c1                	sub    %eax,%ecx
c0102051:	01 f0                	add    %esi,%eax
c0102053:	c1 e9 0c             	shr    $0xc,%ecx
c0102056:	e8 95 fe ff ff       	call   c0101ef0 <set_page_frames>
c010205b:	03 75 e4             	add    -0x1c(%ebp),%esi
c010205e:	c1 ee 11             	shr    $0x11,%esi
c0102061:	83 c6 01             	add    $0x1,%esi
c0102064:	89 35 20 c8 10 c0    	mov    %esi,0xc010c820
c010206a:	39 7d 0c             	cmp    %edi,0xc(%ebp)
c010206d:	75 bc                	jne    c010202b <init_page_frame_allocator+0x3b>
c010206f:	b8 00 d0 20 c0       	mov    $0xc020d000,%eax
c0102074:	31 d2                	xor    %edx,%edx
c0102076:	f7 d8                	neg    %eax
c0102078:	25 ff 0f 00 00       	and    $0xfff,%eax
c010207d:	8d 98 00 d0 20 c0    	lea    -0x3fdf3000(%eax),%ebx
c0102083:	8d 88 00 d0 10 00    	lea    0x10d000(%eax),%ecx
c0102089:	b8 00 00 10 00       	mov    $0x100000,%eax
c010208e:	81 c3 00 00 00 40    	add    $0x40000000,%ebx
c0102094:	c1 e9 0c             	shr    $0xc,%ecx
c0102097:	e8 54 fe ff ff       	call   c0101ef0 <set_page_frames>
c010209c:	c1 eb 11             	shr    $0x11,%ebx
c010209f:	89 1d 24 c8 10 c0    	mov    %ebx,0xc010c824
c01020a5:	8d 65 f4             	lea    -0xc(%ebp),%esp
c01020a8:	5b                   	pop    %ebx
c01020a9:	5e                   	pop    %esi
c01020aa:	5f                   	pop    %edi
c01020ab:	5d                   	pop    %ebp
c01020ac:	c3                   	ret    
c01020ad:	8d 76 00             	lea    0x0(%esi),%esi

c01020b0 <alloc_page_frame>:
c01020b0:	a1 24 c8 10 c0       	mov    0xc010c824,%eax
c01020b5:	8b 0d 20 c8 10 c0    	mov    0xc010c820,%ecx
c01020bb:	39 c8                	cmp    %ecx,%eax
c01020bd:	72 18                	jb     c01020d7 <alloc_page_frame+0x27>
c01020bf:	eb 3f                	jmp    c0102100 <alloc_page_frame+0x50>
c01020c1:	8d b4 26 00 00 00 00 	lea    0x0(%esi,%eiz,1),%esi
c01020c8:	8d b4 26 00 00 00 00 	lea    0x0(%esi,%eiz,1),%esi
c01020cf:	90                   	nop
c01020d0:	83 c0 01             	add    $0x1,%eax
c01020d3:	39 c8                	cmp    %ecx,%eax
c01020d5:	74 29                	je     c0102100 <alloc_page_frame+0x50>
c01020d7:	8b 14 85 28 c8 10 c0 	mov    -0x3fef37d8(,%eax,4),%edx
c01020de:	85 d2                	test   %edx,%edx
c01020e0:	74 ee                	je     c01020d0 <alloc_page_frame+0x20>
c01020e2:	31 c9                	xor    %ecx,%ecx
c01020e4:	a3 24 c8 10 c0       	mov    %eax,0xc010c824
c01020e9:	f3 0f bc ca          	tzcnt  %edx,%ecx
c01020ed:	0f b3 ca             	btr    %ecx,%edx
c01020f0:	89 14 85 28 c8 10 c0 	mov    %edx,-0x3fef37d8(,%eax,4)
c01020f7:	c1 e0 05             	shl    $0x5,%eax
c01020fa:	01 c8                	add    %ecx,%eax
c01020fc:	c1 e0 0c             	shl    $0xc,%eax
c01020ff:	c3                   	ret    
c0102100:	31 c0                	xor    %eax,%eax
c0102102:	c3                   	ret    
c0102103:	8d b4 26 00 00 00 00 	lea    0x0(%esi,%eiz,1),%esi
c010210a:	8d b6 00 00 00 00    	lea    0x0(%esi),%esi

c0102110 <free_page_frame>:
c0102110:	55                   	push   %ebp
c0102111:	89 e5                	mov    %esp,%ebp
c0102113:	8b 45 08             	mov    0x8(%ebp),%eax
c0102116:	89 c1                	mov    %eax,%ecx
c0102118:	c1 e8 11             	shr    $0x11,%eax
c010211b:	c1 e9 0c             	shr    $0xc,%ecx
c010211e:	83 e1 1f             	and    $0x1f,%ecx
c0102121:	39 05 24 c8 10 c0    	cmp    %eax,0xc010c824
c0102127:	76 05                	jbe    c010212e <free_page_frame+0x1e>
c0102129:	a3 24 c8 10 c0       	mov    %eax,0xc010c824
c010212e:	ba 01 00 00 00       	mov    $0x1,%edx
c0102133:	5d                   	pop    %ebp
c0102134:	d3 e2                	shl    %cl,%edx
c0102136:	09 14 85 28 c8 10 c0 	or     %edx,-0x3fef37d8(,%eax,4)
c010213d:	c3                   	ret    
c010213e:	66 90                	xchg   %ax,%ax

c0102140 <init_heap>:
c0102140:	c3                   	ret    
c0102141:	66 90                	xchg   %ax,%ax
c0102143:	66 90                	xchg   %ax,%ax
c0102145:	66 90                	xchg   %ax,%ax
c0102147:	66 90                	xchg   %ax,%ax
c0102149:	66 90                	xchg   %ax,%ax
c010214b:	66 90                	xchg   %ax,%ax
c010214d:	66 90                	xchg   %ax,%ax
c010214f:	90                   	nop

c0102150 <memcpy>:
c0102150:	55                   	push   %ebp
c0102151:	89 e5                	mov    %esp,%ebp
c0102153:	57                   	push   %edi
c0102154:	56                   	push   %esi
c0102155:	53                   	push   %ebx
c0102156:	83 ec 0c             	sub    $0xc,%esp
c0102159:	8b 75 0c             	mov    0xc(%ebp),%esi
c010215c:	8b 55 10             	mov    0x10(%ebp),%edx
c010215f:	39 75 08             	cmp    %esi,0x8(%ebp)
c0102162:	0f 84 8d 00 00 00    	je     c01021f5 <memcpy+0xa5>
c0102168:	89 f0                	mov    %esi,%eax
c010216a:	39 75 08             	cmp    %esi,0x8(%ebp)
c010216d:	0f 83 8d 00 00 00    	jae    c0102200 <memcpy+0xb0>
c0102173:	8b 7d 08             	mov    0x8(%ebp),%edi
c0102176:	83 fa 10             	cmp    $0x10,%edx
c0102179:	76 6a                	jbe    c01021e5 <memcpy+0x95>
c010217b:	89 f9                	mov    %edi,%ecx
c010217d:	8b 7d 08             	mov    0x8(%ebp),%edi
c0102180:	f7 d9                	neg    %ecx
c0102182:	83 e1 03             	and    $0x3,%ecx
c0102185:	01 cf                	add    %ecx,%edi
c0102187:	89 7d f0             	mov    %edi,-0x10(%ebp)
c010218a:	8b 7d 08             	mov    0x8(%ebp),%edi
c010218d:	8b 5d f0             	mov    -0x10(%ebp),%ebx
c0102190:	85 c9                	test   %ecx,%ecx
c0102192:	0f 84 44 01 00 00    	je     c01022dc <memcpy+0x18c>
c0102198:	8d b4 26 00 00 00 00 	lea    0x0(%esi,%eiz,1),%esi
c010219f:	90                   	nop
c01021a0:	a4                   	movsb  %ds:(%esi),%es:(%edi)
c01021a1:	39 df                	cmp    %ebx,%edi
c01021a3:	75 fb                	jne    c01021a0 <memcpy+0x50>
c01021a5:	29 ca                	sub    %ecx,%edx
c01021a7:	8d 3c 01             	lea    (%ecx,%eax,1),%edi
c01021aa:	8b 5d 08             	mov    0x8(%ebp),%ebx
c01021ad:	89 d1                	mov    %edx,%ecx
c01021af:	89 55 ec             	mov    %edx,-0x14(%ebp)
c01021b2:	89 fa                	mov    %edi,%edx
c01021b4:	83 e1 fc             	and    $0xfffffffc,%ecx
c01021b7:	29 c3                	sub    %eax,%ebx
c01021b9:	01 f9                	add    %edi,%ecx
c01021bb:	8d 74 26 00          	lea    0x0(%esi,%eiz,1),%esi
c01021bf:	90                   	nop
c01021c0:	89 d6                	mov    %edx,%esi
c01021c2:	8d 04 1a             	lea    (%edx,%ebx,1),%eax
c01021c5:	83 c2 04             	add    $0x4,%edx
c01021c8:	8b 36                	mov    (%esi),%esi
c01021ca:	89 30                	mov    %esi,(%eax)
c01021cc:	39 ca                	cmp    %ecx,%edx
c01021ce:	75 f0                	jne    c01021c0 <memcpy+0x70>
c01021d0:	8b 4d ec             	mov    -0x14(%ebp),%ecx
c01021d3:	89 c8                	mov    %ecx,%eax
c01021d5:	83 e1 03             	and    $0x3,%ecx
c01021d8:	83 e0 fc             	and    $0xfffffffc,%eax
c01021db:	89 ca                	mov    %ecx,%edx
c01021dd:	8d 34 07             	lea    (%edi,%eax,1),%esi
c01021e0:	8b 7d f0             	mov    -0x10(%ebp),%edi
c01021e3:	01 c7                	add    %eax,%edi
c01021e5:	85 d2                	test   %edx,%edx
c01021e7:	74 0c                	je     c01021f5 <memcpy+0xa5>
c01021e9:	01 f2                	add    %esi,%edx
c01021eb:	8d 74 26 00          	lea    0x0(%esi,%eiz,1),%esi
c01021ef:	90                   	nop
c01021f0:	a4                   	movsb  %ds:(%esi),%es:(%edi)
c01021f1:	39 f2                	cmp    %esi,%edx
c01021f3:	75 fb                	jne    c01021f0 <memcpy+0xa0>
c01021f5:	8b 45 08             	mov    0x8(%ebp),%eax
c01021f8:	83 c4 0c             	add    $0xc,%esp
c01021fb:	5b                   	pop    %ebx
c01021fc:	5e                   	pop    %esi
c01021fd:	5f                   	pop    %edi
c01021fe:	5d                   	pop    %ebp
c01021ff:	c3                   	ret    
c0102200:	8b 4d 08             	mov    0x8(%ebp),%ecx
c0102203:	8d 42 ff             	lea    -0x1(%edx),%eax
c0102206:	01 c1                	add    %eax,%ecx
c0102208:	01 f0                	add    %esi,%eax
c010220a:	89 4d ec             	mov    %ecx,-0x14(%ebp)
c010220d:	89 c7                	mov    %eax,%edi
c010220f:	89 45 f0             	mov    %eax,-0x10(%ebp)
c0102212:	83 fa 10             	cmp    $0x10,%edx
c0102215:	0f 86 8f 00 00 00    	jbe    c01022aa <memcpy+0x15a>
c010221b:	83 e1 03             	and    $0x3,%ecx
c010221e:	29 cf                	sub    %ecx,%edi
c0102220:	89 4d e8             	mov    %ecx,-0x18(%ebp)
c0102223:	89 fb                	mov    %edi,%ebx
c0102225:	8b 7d 08             	mov    0x8(%ebp),%edi
c0102228:	29 f7                	sub    %esi,%edi
c010222a:	85 c9                	test   %ecx,%ecx
c010222c:	74 26                	je     c0102254 <memcpy+0x104>
c010222e:	89 75 0c             	mov    %esi,0xc(%ebp)
c0102231:	89 de                	mov    %ebx,%esi
c0102233:	8d b4 26 00 00 00 00 	lea    0x0(%esi,%eiz,1),%esi
c010223a:	8d b6 00 00 00 00    	lea    0x0(%esi),%esi
c0102240:	89 c3                	mov    %eax,%ebx
c0102242:	8d 0c 38             	lea    (%eax,%edi,1),%ecx
c0102245:	83 e8 01             	sub    $0x1,%eax
c0102248:	0f b6 1b             	movzbl (%ebx),%ebx
c010224b:	88 19                	mov    %bl,(%ecx)
c010224d:	39 f0                	cmp    %esi,%eax
c010224f:	75 ef                	jne    c0102240 <memcpy+0xf0>
c0102251:	8b 75 0c             	mov    0xc(%ebp),%esi
c0102254:	8b 45 ec             	mov    -0x14(%ebp),%eax
c0102257:	8b 4d e8             	mov    -0x18(%ebp),%ecx
c010225a:	83 e8 03             	sub    $0x3,%eax
c010225d:	29 ca                	sub    %ecx,%edx
c010225f:	29 c8                	sub    %ecx,%eax
c0102261:	89 45 ec             	mov    %eax,-0x14(%ebp)
c0102264:	8b 45 f0             	mov    -0x10(%ebp),%eax
c0102267:	89 55 f0             	mov    %edx,-0x10(%ebp)
c010226a:	83 e2 fc             	and    $0xfffffffc,%edx
c010226d:	83 e8 03             	sub    $0x3,%eax
c0102270:	29 c8                	sub    %ecx,%eax
c0102272:	8b 4d 08             	mov    0x8(%ebp),%ecx
c0102275:	89 c3                	mov    %eax,%ebx
c0102277:	89 c7                	mov    %eax,%edi
c0102279:	29 d3                	sub    %edx,%ebx
c010227b:	29 f1                	sub    %esi,%ecx
c010227d:	8d 76 00             	lea    0x0(%esi),%esi
c0102280:	89 c6                	mov    %eax,%esi
c0102282:	8d 14 08             	lea    (%eax,%ecx,1),%edx
c0102285:	83 e8 04             	sub    $0x4,%eax
c0102288:	8b 36                	mov    (%esi),%esi
c010228a:	89 32                	mov    %esi,(%edx)
c010228c:	39 c3                	cmp    %eax,%ebx
c010228e:	75 f0                	jne    c0102280 <memcpy+0x130>
c0102290:	8b 4d f0             	mov    -0x10(%ebp),%ecx
c0102293:	8b 5d ec             	mov    -0x14(%ebp),%ebx
c0102296:	89 c8                	mov    %ecx,%eax
c0102298:	83 e1 03             	and    $0x3,%ecx
c010229b:	83 e0 fc             	and    $0xfffffffc,%eax
c010229e:	89 ca                	mov    %ecx,%edx
c01022a0:	29 c3                	sub    %eax,%ebx
c01022a2:	29 c7                	sub    %eax,%edi
c01022a4:	89 5d ec             	mov    %ebx,-0x14(%ebp)
c01022a7:	89 7d f0             	mov    %edi,-0x10(%ebp)
c01022aa:	8b 45 f0             	mov    -0x10(%ebp),%eax
c01022ad:	85 d2                	test   %edx,%edx
c01022af:	0f 84 40 ff ff ff    	je     c01021f5 <memcpy+0xa5>
c01022b5:	8b 75 ec             	mov    -0x14(%ebp),%esi
c01022b8:	89 c1                	mov    %eax,%ecx
c01022ba:	29 d1                	sub    %edx,%ecx
c01022bc:	29 c6                	sub    %eax,%esi
c01022be:	66 90                	xchg   %ax,%ax
c01022c0:	89 c3                	mov    %eax,%ebx
c01022c2:	8d 14 30             	lea    (%eax,%esi,1),%edx
c01022c5:	83 e8 01             	sub    $0x1,%eax
c01022c8:	0f b6 1b             	movzbl (%ebx),%ebx
c01022cb:	88 1a                	mov    %bl,(%edx)
c01022cd:	39 c1                	cmp    %eax,%ecx
c01022cf:	75 ef                	jne    c01022c0 <memcpy+0x170>
c01022d1:	8b 45 08             	mov    0x8(%ebp),%eax
c01022d4:	83 c4 0c             	add    $0xc,%esp
c01022d7:	5b                   	pop    %ebx
c01022d8:	5e                   	pop    %esi
c01022d9:	5f                   	pop    %edi
c01022da:	5d                   	pop    %ebp
c01022db:	c3                   	ret    
c01022dc:	89 7d f0             	mov    %edi,-0x10(%ebp)
c01022df:	e9 c1 fe ff ff       	jmp    c01021a5 <memcpy+0x55>
c01022e4:	8d b4 26 00 00 00 00 	lea    0x0(%esi,%eiz,1),%esi
c01022eb:	8d 74 26 00          	lea    0x0(%esi,%eiz,1),%esi
c01022ef:	90                   	nop

c01022f0 <memmove>:
c01022f0:	e9 5b fe ff ff       	jmp    c0102150 <memcpy>
c01022f5:	66 90                	xchg   %ax,%ax
c01022f7:	66 90                	xchg   %ax,%ax
c01022f9:	66 90                	xchg   %ax,%ax
c01022fb:	66 90                	xchg   %ax,%ax
c01022fd:	66 90                	xchg   %ax,%ax
c01022ff:	90                   	nop

c0102300 <printf>:
c0102300:	55                   	push   %ebp
c0102301:	89 e5                	mov    %esp,%ebp
c0102303:	57                   	push   %edi
c0102304:	56                   	push   %esi
c0102305:	8d 45 0c             	lea    0xc(%ebp),%eax
c0102308:	53                   	push   %ebx
c0102309:	83 ec 5c             	sub    $0x5c,%esp
c010230c:	89 45 a0             	mov    %eax,-0x60(%ebp)
c010230f:	8b 45 08             	mov    0x8(%ebp),%eax
c0102312:	c7 45 a4 00 00 00 00 	movl   $0x0,-0x5c(%ebp)
c0102319:	0f be 00             	movsbl (%eax),%eax
c010231c:	84 c0                	test   %al,%al
c010231e:	75 2e                	jne    c010234e <printf+0x4e>
c0102320:	eb 6c                	jmp    c010238e <printf+0x8e>
c0102322:	8d b4 26 00 00 00 00 	lea    0x0(%esi,%eiz,1),%esi
c0102329:	8d b4 26 00 00 00 00 	lea    0x0(%esi,%eiz,1),%esi
c0102330:	83 ec 0c             	sub    $0xc,%esp
c0102333:	83 45 08 01          	addl   $0x1,0x8(%ebp)
c0102337:	50                   	push   %eax
c0102338:	e8 43 07 00 00       	call   c0102a80 <putchar>
c010233d:	8b 45 08             	mov    0x8(%ebp),%eax
c0102340:	83 45 a4 01          	addl   $0x1,-0x5c(%ebp)
c0102344:	83 c4 10             	add    $0x10,%esp
c0102347:	0f be 00             	movsbl (%eax),%eax
c010234a:	84 c0                	test   %al,%al
c010234c:	74 40                	je     c010238e <printf+0x8e>
c010234e:	3c 25                	cmp    $0x25,%al
c0102350:	75 de                	jne    c0102330 <printf+0x30>
c0102352:	8b 45 08             	mov    0x8(%ebp),%eax
c0102355:	0f be 50 01          	movsbl 0x1(%eax),%edx
c0102359:	8d 42 a8             	lea    -0x58(%edx),%eax
c010235c:	3c 20                	cmp    $0x20,%al
c010235e:	77 10                	ja     c0102370 <printf+0x70>
c0102360:	0f b6 c0             	movzbl %al,%eax
c0102363:	ff 24 85 24 30 10 c0 	jmp    *-0x3fefcfdc(,%eax,4)
c010236a:	8d b6 00 00 00 00    	lea    0x0(%esi),%esi
c0102370:	83 ec 0c             	sub    $0xc,%esp
c0102373:	52                   	push   %edx
c0102374:	e8 07 07 00 00       	call   c0102a80 <putchar>
c0102379:	83 45 a4 01          	addl   $0x1,-0x5c(%ebp)
c010237d:	83 c4 10             	add    $0x10,%esp
c0102380:	83 45 08 02          	addl   $0x2,0x8(%ebp)
c0102384:	8b 45 08             	mov    0x8(%ebp),%eax
c0102387:	0f be 00             	movsbl (%eax),%eax
c010238a:	84 c0                	test   %al,%al
c010238c:	75 c0                	jne    c010234e <printf+0x4e>
c010238e:	8b 45 a4             	mov    -0x5c(%ebp),%eax
c0102391:	8d 65 f4             	lea    -0xc(%ebp),%esp
c0102394:	5b                   	pop    %ebx
c0102395:	5e                   	pop    %esi
c0102396:	5f                   	pop    %edi
c0102397:	5d                   	pop    %ebp
c0102398:	c3                   	ret    
c0102399:	8d b4 26 00 00 00 00 	lea    0x0(%esi,%eiz,1),%esi
c01023a0:	8b 75 a0             	mov    -0x60(%ebp),%esi
c01023a3:	31 db                	xor    %ebx,%ebx
c01023a5:	8d 7d bf             	lea    -0x41(%ebp),%edi
c01023a8:	89 f0                	mov    %esi,%eax
c01023aa:	83 c6 04             	add    $0x4,%esi
c01023ad:	8b 10                	mov    (%eax),%edx
c01023af:	89 75 a0             	mov    %esi,-0x60(%ebp)
c01023b2:	83 fa 0f             	cmp    $0xf,%edx
c01023b5:	76 1c                	jbe    c01023d3 <printf+0xd3>
c01023b7:	8d b4 26 00 00 00 00 	lea    0x0(%esi,%eiz,1),%esi
c01023be:	66 90                	xchg   %ax,%ax
c01023c0:	89 d0                	mov    %edx,%eax
c01023c2:	83 c3 01             	add    $0x1,%ebx
c01023c5:	c1 ea 04             	shr    $0x4,%edx
c01023c8:	83 e0 0f             	and    $0xf,%eax
c01023cb:	88 04 1f             	mov    %al,(%edi,%ebx,1)
c01023ce:	83 fa 0f             	cmp    $0xf,%edx
c01023d1:	77 ed                	ja     c01023c0 <printf+0xc0>
c01023d3:	88 54 1d c0          	mov    %dl,-0x40(%ebp,%ebx,1)
c01023d7:	0f be c2             	movsbl %dl,%eax
c01023da:	8d 4c 1d bf          	lea    -0x41(%ebp,%ebx,1),%ecx
c01023de:	8d 75 b5             	lea    -0x4b(%ebp),%esi
c01023e1:	89 5d 9c             	mov    %ebx,-0x64(%ebp)
c01023e4:	eb 10                	jmp    c01023f6 <printf+0xf6>
c01023e6:	8d b4 26 00 00 00 00 	lea    0x0(%esi,%eiz,1),%esi
c01023ed:	8d 76 00             	lea    0x0(%esi),%esi
c01023f0:	0f be 01             	movsbl (%ecx),%eax
c01023f3:	83 e9 01             	sub    $0x1,%ecx
c01023f6:	83 f8 09             	cmp    $0x9,%eax
c01023f9:	8d 58 30             	lea    0x30(%eax),%ebx
c01023fc:	8d 50 57             	lea    0x57(%eax),%edx
c01023ff:	0f 4e d3             	cmovle %ebx,%edx
c0102402:	83 c6 01             	add    $0x1,%esi
c0102405:	88 56 ff             	mov    %dl,-0x1(%esi)
c0102408:	39 cf                	cmp    %ecx,%edi
c010240a:	75 e4                	jne    c01023f0 <printf+0xf0>
c010240c:	8b 5d 9c             	mov    -0x64(%ebp),%ebx
c010240f:	c6 44 1d b6 00       	movb   $0x0,-0x4a(%ebp,%ebx,1)
c0102414:	0f be 45 b5          	movsbl -0x4b(%ebp),%eax
c0102418:	84 c0                	test   %al,%al
c010241a:	0f 84 60 ff ff ff    	je     c0102380 <printf+0x80>
c0102420:	31 db                	xor    %ebx,%ebx
c0102422:	8d b4 26 00 00 00 00 	lea    0x0(%esi,%eiz,1),%esi
c0102429:	8d b4 26 00 00 00 00 	lea    0x0(%esi,%eiz,1),%esi
c0102430:	83 ec 0c             	sub    $0xc,%esp
c0102433:	83 c3 01             	add    $0x1,%ebx
c0102436:	50                   	push   %eax
c0102437:	e8 44 06 00 00       	call   c0102a80 <putchar>
c010243c:	0f be 44 1d b5       	movsbl -0x4b(%ebp,%ebx,1),%eax
c0102441:	83 c4 10             	add    $0x10,%esp
c0102444:	84 c0                	test   %al,%al
c0102446:	75 e8                	jne    c0102430 <printf+0x130>
c0102448:	01 5d a4             	add    %ebx,-0x5c(%ebp)
c010244b:	e9 30 ff ff ff       	jmp    c0102380 <printf+0x80>
c0102450:	8b 75 a0             	mov    -0x60(%ebp),%esi
c0102453:	89 f0                	mov    %esi,%eax
c0102455:	83 c6 04             	add    $0x4,%esi
c0102458:	8b 18                	mov    (%eax),%ebx
c010245a:	89 75 a0             	mov    %esi,-0x60(%ebp)
c010245d:	0f be 03             	movsbl (%ebx),%eax
c0102460:	84 c0                	test   %al,%al
c0102462:	0f 84 18 ff ff ff    	je     c0102380 <printf+0x80>
c0102468:	31 f6                	xor    %esi,%esi
c010246a:	8d b6 00 00 00 00    	lea    0x0(%esi),%esi
c0102470:	83 ec 0c             	sub    $0xc,%esp
c0102473:	83 c6 01             	add    $0x1,%esi
c0102476:	50                   	push   %eax
c0102477:	e8 04 06 00 00       	call   c0102a80 <putchar>
c010247c:	0f be 04 33          	movsbl (%ebx,%esi,1),%eax
c0102480:	83 c4 10             	add    $0x10,%esp
c0102483:	84 c0                	test   %al,%al
c0102485:	75 e9                	jne    c0102470 <printf+0x170>
c0102487:	01 75 a4             	add    %esi,-0x5c(%ebp)
c010248a:	e9 f1 fe ff ff       	jmp    c0102380 <printf+0x80>
c010248f:	90                   	nop
c0102490:	8b 7d a0             	mov    -0x60(%ebp),%edi
c0102493:	89 f8                	mov    %edi,%eax
c0102495:	83 c7 04             	add    $0x4,%edi
c0102498:	8b 00                	mov    (%eax),%eax
c010249a:	89 7d a0             	mov    %edi,-0x60(%ebp)
c010249d:	89 c1                	mov    %eax,%ecx
c010249f:	89 45 9c             	mov    %eax,-0x64(%ebp)
c01024a2:	f7 d9                	neg    %ecx
c01024a4:	0f 48 c8             	cmovs  %eax,%ecx
c01024a7:	83 f9 09             	cmp    $0x9,%ecx
c01024aa:	0f 8e 8c 01 00 00    	jle    c010263c <printf+0x33c>
c01024b0:	31 db                	xor    %ebx,%ebx
c01024b2:	8d b4 26 00 00 00 00 	lea    0x0(%esi,%eiz,1),%esi
c01024b9:	8d b4 26 00 00 00 00 	lea    0x0(%esi,%eiz,1),%esi
c01024c0:	b8 cd cc cc cc       	mov    $0xcccccccd,%eax
c01024c5:	89 cf                	mov    %ecx,%edi
c01024c7:	89 de                	mov    %ebx,%esi
c01024c9:	83 c3 01             	add    $0x1,%ebx
c01024cc:	f7 e1                	mul    %ecx
c01024ce:	c1 ea 03             	shr    $0x3,%edx
c01024d1:	8d 04 92             	lea    (%edx,%edx,4),%eax
c01024d4:	01 c0                	add    %eax,%eax
c01024d6:	29 c7                	sub    %eax,%edi
c01024d8:	89 c8                	mov    %ecx,%eax
c01024da:	89 d1                	mov    %edx,%ecx
c01024dc:	89 7c 9d bc          	mov    %edi,-0x44(%ebp,%ebx,4)
c01024e0:	83 f8 63             	cmp    $0x63,%eax
c01024e3:	7f db                	jg     c01024c0 <printf+0x1c0>
c01024e5:	83 c6 02             	add    $0x2,%esi
c01024e8:	8b 55 9c             	mov    -0x64(%ebp),%edx
c01024eb:	89 4c 9d c0          	mov    %ecx,-0x40(%ebp,%ebx,4)
c01024ef:	8d 45 b5             	lea    -0x4b(%ebp),%eax
c01024f2:	85 d2                	test   %edx,%edx
c01024f4:	0f 88 36 01 00 00    	js     c0102630 <printf+0x330>
c01024fa:	89 c2                	mov    %eax,%edx
c01024fc:	89 f3                	mov    %esi,%ebx
c01024fe:	eb 04                	jmp    c0102504 <printf+0x204>
c0102500:	8b 4c 9d bc          	mov    -0x44(%ebp,%ebx,4),%ecx
c0102504:	83 c2 01             	add    $0x1,%edx
c0102507:	83 c1 30             	add    $0x30,%ecx
c010250a:	88 4a ff             	mov    %cl,-0x1(%edx)
c010250d:	83 eb 01             	sub    $0x1,%ebx
c0102510:	75 ee                	jne    c0102500 <printf+0x200>
c0102512:	c6 04 30 00          	movb   $0x0,(%eax,%esi,1)
c0102516:	0f be 45 b5          	movsbl -0x4b(%ebp),%eax
c010251a:	84 c0                	test   %al,%al
c010251c:	0f 84 5e fe ff ff    	je     c0102380 <printf+0x80>
c0102522:	8d b4 26 00 00 00 00 	lea    0x0(%esi,%eiz,1),%esi
c0102529:	8d b4 26 00 00 00 00 	lea    0x0(%esi,%eiz,1),%esi
c0102530:	83 ec 0c             	sub    $0xc,%esp
c0102533:	83 c3 01             	add    $0x1,%ebx
c0102536:	50                   	push   %eax
c0102537:	e8 44 05 00 00       	call   c0102a80 <putchar>
c010253c:	0f be 44 1d b5       	movsbl -0x4b(%ebp,%ebx,1),%eax
c0102541:	83 c4 10             	add    $0x10,%esp
c0102544:	84 c0                	test   %al,%al
c0102546:	75 e8                	jne    c0102530 <printf+0x230>
c0102548:	01 5d a4             	add    %ebx,-0x5c(%ebp)
c010254b:	e9 30 fe ff ff       	jmp    c0102380 <printf+0x80>
c0102550:	8b 75 a0             	mov    -0x60(%ebp),%esi
c0102553:	83 ec 0c             	sub    $0xc,%esp
c0102556:	89 f0                	mov    %esi,%eax
c0102558:	83 c6 04             	add    $0x4,%esi
c010255b:	ff 30                	push   (%eax)
c010255d:	89 75 a0             	mov    %esi,-0x60(%ebp)
c0102560:	e8 1b 05 00 00       	call   c0102a80 <putchar>
c0102565:	83 45 a4 01          	addl   $0x1,-0x5c(%ebp)
c0102569:	83 c4 10             	add    $0x10,%esp
c010256c:	e9 0f fe ff ff       	jmp    c0102380 <printf+0x80>
c0102571:	8d b4 26 00 00 00 00 	lea    0x0(%esi,%eiz,1),%esi
c0102578:	8d b4 26 00 00 00 00 	lea    0x0(%esi,%eiz,1),%esi
c010257f:	90                   	nop
c0102580:	8b 7d a0             	mov    -0x60(%ebp),%edi
c0102583:	31 db                	xor    %ebx,%ebx
c0102585:	89 f8                	mov    %edi,%eax
c0102587:	83 c7 04             	add    $0x4,%edi
c010258a:	8b 10                	mov    (%eax),%edx
c010258c:	89 7d a0             	mov    %edi,-0x60(%ebp)
c010258f:	8d 7d bf             	lea    -0x41(%ebp),%edi
c0102592:	83 fa 0f             	cmp    $0xf,%edx
c0102595:	76 1c                	jbe    c01025b3 <printf+0x2b3>
c0102597:	8d b4 26 00 00 00 00 	lea    0x0(%esi,%eiz,1),%esi
c010259e:	66 90                	xchg   %ax,%ax
c01025a0:	89 d0                	mov    %edx,%eax
c01025a2:	83 c3 01             	add    $0x1,%ebx
c01025a5:	c1 ea 04             	shr    $0x4,%edx
c01025a8:	83 e0 0f             	and    $0xf,%eax
c01025ab:	88 04 1f             	mov    %al,(%edi,%ebx,1)
c01025ae:	83 fa 0f             	cmp    $0xf,%edx
c01025b1:	77 ed                	ja     c01025a0 <printf+0x2a0>
c01025b3:	88 54 1d c0          	mov    %dl,-0x40(%ebp,%ebx,1)
c01025b7:	0f be c2             	movsbl %dl,%eax
c01025ba:	8d 4c 1d bf          	lea    -0x41(%ebp,%ebx,1),%ecx
c01025be:	8d 75 b5             	lea    -0x4b(%ebp),%esi
c01025c1:	89 5d 9c             	mov    %ebx,-0x64(%ebp)
c01025c4:	eb 10                	jmp    c01025d6 <printf+0x2d6>
c01025c6:	8d b4 26 00 00 00 00 	lea    0x0(%esi,%eiz,1),%esi
c01025cd:	8d 76 00             	lea    0x0(%esi),%esi
c01025d0:	0f be 01             	movsbl (%ecx),%eax
c01025d3:	83 e9 01             	sub    $0x1,%ecx
c01025d6:	83 f8 09             	cmp    $0x9,%eax
c01025d9:	8d 58 30             	lea    0x30(%eax),%ebx
c01025dc:	8d 50 37             	lea    0x37(%eax),%edx
c01025df:	0f 4e d3             	cmovle %ebx,%edx
c01025e2:	83 c6 01             	add    $0x1,%esi
c01025e5:	88 56 ff             	mov    %dl,-0x1(%esi)
c01025e8:	39 cf                	cmp    %ecx,%edi
c01025ea:	75 e4                	jne    c01025d0 <printf+0x2d0>
c01025ec:	8b 5d 9c             	mov    -0x64(%ebp),%ebx
c01025ef:	c6 44 1d b6 00       	movb   $0x0,-0x4a(%ebp,%ebx,1)
c01025f4:	0f be 45 b5          	movsbl -0x4b(%ebp),%eax
c01025f8:	84 c0                	test   %al,%al
c01025fa:	0f 84 80 fd ff ff    	je     c0102380 <printf+0x80>
c0102600:	31 db                	xor    %ebx,%ebx
c0102602:	8d b4 26 00 00 00 00 	lea    0x0(%esi,%eiz,1),%esi
c0102609:	8d b4 26 00 00 00 00 	lea    0x0(%esi,%eiz,1),%esi
c0102610:	83 ec 0c             	sub    $0xc,%esp
c0102613:	83 c3 01             	add    $0x1,%ebx
c0102616:	50                   	push   %eax
c0102617:	e8 64 04 00 00       	call   c0102a80 <putchar>
c010261c:	0f be 44 1d b5       	movsbl -0x4b(%ebp,%ebx,1),%eax
c0102621:	83 c4 10             	add    $0x10,%esp
c0102624:	84 c0                	test   %al,%al
c0102626:	75 e8                	jne    c0102610 <printf+0x310>
c0102628:	01 5d a4             	add    %ebx,-0x5c(%ebp)
c010262b:	e9 50 fd ff ff       	jmp    c0102380 <printf+0x80>
c0102630:	c6 45 b5 2d          	movb   $0x2d,-0x4b(%ebp)
c0102634:	8d 45 b6             	lea    -0x4a(%ebp),%eax
c0102637:	e9 be fe ff ff       	jmp    c01024fa <printf+0x1fa>
c010263c:	be 01 00 00 00       	mov    $0x1,%esi
c0102641:	31 db                	xor    %ebx,%ebx
c0102643:	e9 a0 fe ff ff       	jmp    c01024e8 <printf+0x1e8>
c0102648:	8d b4 26 00 00 00 00 	lea    0x0(%esi,%eiz,1),%esi
c010264f:	90                   	nop

c0102650 <sprintf>:
c0102650:	55                   	push   %ebp
c0102651:	89 e5                	mov    %esp,%ebp
c0102653:	57                   	push   %edi
c0102654:	56                   	push   %esi
c0102655:	8d 45 10             	lea    0x10(%ebp),%eax
c0102658:	53                   	push   %ebx
c0102659:	83 ec 44             	sub    $0x44,%esp
c010265c:	89 45 bc             	mov    %eax,-0x44(%ebp)
c010265f:	8b 45 0c             	mov    0xc(%ebp),%eax
c0102662:	0f b6 10             	movzbl (%eax),%edx
c0102665:	8b 45 08             	mov    0x8(%ebp),%eax
c0102668:	89 45 c0             	mov    %eax,-0x40(%ebp)
c010266b:	83 c0 01             	add    $0x1,%eax
c010266e:	84 d2                	test   %dl,%dl
c0102670:	74 4e                	je     c01026c0 <sprintf+0x70>
c0102672:	8b 7d 0c             	mov    0xc(%ebp),%edi
c0102675:	eb 1e                	jmp    c0102695 <sprintf+0x45>
c0102677:	8d b4 26 00 00 00 00 	lea    0x0(%esi,%eiz,1),%esi
c010267e:	66 90                	xchg   %ax,%ax
c0102680:	8b 75 c0             	mov    -0x40(%ebp),%esi
c0102683:	83 c7 01             	add    $0x1,%edi
c0102686:	89 45 c0             	mov    %eax,-0x40(%ebp)
c0102689:	83 c0 01             	add    $0x1,%eax
c010268c:	88 16                	mov    %dl,(%esi)
c010268e:	0f b6 17             	movzbl (%edi),%edx
c0102691:	84 d2                	test   %dl,%dl
c0102693:	74 2b                	je     c01026c0 <sprintf+0x70>
c0102695:	0f b6 4f 01          	movzbl 0x1(%edi),%ecx
c0102699:	89 c6                	mov    %eax,%esi
c010269b:	80 fa 25             	cmp    $0x25,%dl
c010269e:	75 e0                	jne    c0102680 <sprintf+0x30>
c01026a0:	8d 51 a8             	lea    -0x58(%ecx),%edx
c01026a3:	80 fa 20             	cmp    $0x20,%dl
c01026a6:	77 38                	ja     c01026e0 <sprintf+0x90>
c01026a8:	0f b6 d2             	movzbl %dl,%edx
c01026ab:	ff 24 95 a8 30 10 c0 	jmp    *-0x3fefcf58(,%edx,4)
c01026b2:	8d b4 26 00 00 00 00 	lea    0x0(%esi,%eiz,1),%esi
c01026b9:	8d b4 26 00 00 00 00 	lea    0x0(%esi,%eiz,1),%esi
c01026c0:	8b 75 c0             	mov    -0x40(%ebp),%esi
c01026c3:	8b 55 08             	mov    0x8(%ebp),%edx
c01026c6:	c6 06 00             	movb   $0x0,(%esi)
c01026c9:	29 c2                	sub    %eax,%edx
c01026cb:	83 c4 44             	add    $0x44,%esp
c01026ce:	5b                   	pop    %ebx
c01026cf:	89 d0                	mov    %edx,%eax
c01026d1:	5e                   	pop    %esi
c01026d2:	5f                   	pop    %edi
c01026d3:	5d                   	pop    %ebp
c01026d4:	c3                   	ret    
c01026d5:	8d b4 26 00 00 00 00 	lea    0x0(%esi,%eiz,1),%esi
c01026dc:	8d 74 26 00          	lea    0x0(%esi,%eiz,1),%esi
c01026e0:	8b 75 c0             	mov    -0x40(%ebp),%esi
c01026e3:	89 45 c0             	mov    %eax,-0x40(%ebp)
c01026e6:	83 c0 01             	add    $0x1,%eax
c01026e9:	88 0e                	mov    %cl,(%esi)
c01026eb:	8d 74 26 00          	lea    0x0(%esi,%eiz,1),%esi
c01026ef:	90                   	nop
c01026f0:	83 c7 02             	add    $0x2,%edi
c01026f3:	eb 99                	jmp    c010268e <sprintf+0x3e>
c01026f5:	8b 75 bc             	mov    -0x44(%ebp),%esi
c01026f8:	89 f0                	mov    %esi,%eax
c01026fa:	83 c6 04             	add    $0x4,%esi
c01026fd:	8b 08                	mov    (%eax),%ecx
c01026ff:	89 75 bc             	mov    %esi,-0x44(%ebp)
c0102702:	83 f9 0f             	cmp    $0xf,%ecx
c0102705:	0f 86 51 02 00 00    	jbe    c010295c <sprintf+0x30c>
c010270b:	8d 75 cb             	lea    -0x35(%ebp),%esi
c010270e:	31 d2                	xor    %edx,%edx
c0102710:	89 75 b8             	mov    %esi,-0x48(%ebp)
c0102713:	8d b4 26 00 00 00 00 	lea    0x0(%esi,%eiz,1),%esi
c010271a:	8d b6 00 00 00 00    	lea    0x0(%esi),%esi
c0102720:	89 c8                	mov    %ecx,%eax
c0102722:	89 d3                	mov    %edx,%ebx
c0102724:	c1 e9 04             	shr    $0x4,%ecx
c0102727:	83 c2 01             	add    $0x1,%edx
c010272a:	83 e0 0f             	and    $0xf,%eax
c010272d:	88 04 16             	mov    %al,(%esi,%edx,1)
c0102730:	83 f9 0f             	cmp    $0xf,%ecx
c0102733:	77 eb                	ja     c0102720 <sprintf+0xd0>
c0102735:	8d 43 02             	lea    0x2(%ebx),%eax
c0102738:	89 45 b0             	mov    %eax,-0x50(%ebp)
c010273b:	89 7d 0c             	mov    %edi,0xc(%ebp)
c010273e:	8b 75 c0             	mov    -0x40(%ebp),%esi
c0102741:	0f be c1             	movsbl %cl,%eax
c0102744:	8d 5c 15 cb          	lea    -0x35(%ebp,%edx,1),%ebx
c0102748:	88 4c 15 cc          	mov    %cl,-0x34(%ebp,%edx,1)
c010274c:	8b 7d b8             	mov    -0x48(%ebp),%edi
c010274f:	89 55 b4             	mov    %edx,-0x4c(%ebp)
c0102752:	eb 12                	jmp    c0102766 <sprintf+0x116>
c0102754:	8d b4 26 00 00 00 00 	lea    0x0(%esi,%eiz,1),%esi
c010275b:	8d 74 26 00          	lea    0x0(%esi,%eiz,1),%esi
c010275f:	90                   	nop
c0102760:	0f be 03             	movsbl (%ebx),%eax
c0102763:	83 eb 01             	sub    $0x1,%ebx
c0102766:	83 f8 09             	cmp    $0x9,%eax
c0102769:	8d 48 30             	lea    0x30(%eax),%ecx
c010276c:	8d 50 57             	lea    0x57(%eax),%edx
c010276f:	0f 4e d1             	cmovle %ecx,%edx
c0102772:	83 c6 01             	add    $0x1,%esi
c0102775:	88 56 ff             	mov    %dl,-0x1(%esi)
c0102778:	39 df                	cmp    %ebx,%edi
c010277a:	75 e4                	jne    c0102760 <sprintf+0x110>
c010277c:	8b 45 c0             	mov    -0x40(%ebp),%eax
c010277f:	8b 55 b4             	mov    -0x4c(%ebp),%edx
c0102782:	8b 7d 0c             	mov    0xc(%ebp),%edi
c0102785:	c6 44 10 01 00       	movb   $0x0,0x1(%eax,%edx,1)
c010278a:	8b 5d b0             	mov    -0x50(%ebp),%ebx
c010278d:	01 d8                	add    %ebx,%eax
c010278f:	89 45 c0             	mov    %eax,-0x40(%ebp)
c0102792:	83 c0 01             	add    $0x1,%eax
c0102795:	e9 56 ff ff ff       	jmp    c01026f0 <sprintf+0xa0>
c010279a:	8b 75 bc             	mov    -0x44(%ebp),%esi
c010279d:	89 f2                	mov    %esi,%edx
c010279f:	83 c6 04             	add    $0x4,%esi
c01027a2:	8b 0a                	mov    (%edx),%ecx
c01027a4:	89 75 bc             	mov    %esi,-0x44(%ebp)
c01027a7:	0f b6 11             	movzbl (%ecx),%edx
c01027aa:	84 d2                	test   %dl,%dl
c01027ac:	75 15                	jne    c01027c3 <sprintf+0x173>
c01027ae:	e9 3d ff ff ff       	jmp    c01026f0 <sprintf+0xa0>
c01027b3:	8d b4 26 00 00 00 00 	lea    0x0(%esi,%eiz,1),%esi
c01027ba:	8d b6 00 00 00 00    	lea    0x0(%esi),%esi
c01027c0:	83 c0 01             	add    $0x1,%eax
c01027c3:	83 c1 01             	add    $0x1,%ecx
c01027c6:	88 50 ff             	mov    %dl,-0x1(%eax)
c01027c9:	0f b6 11             	movzbl (%ecx),%edx
c01027cc:	84 d2                	test   %dl,%dl
c01027ce:	75 f0                	jne    c01027c0 <sprintf+0x170>
c01027d0:	89 45 c0             	mov    %eax,-0x40(%ebp)
c01027d3:	83 c0 01             	add    $0x1,%eax
c01027d6:	e9 15 ff ff ff       	jmp    c01026f0 <sprintf+0xa0>
c01027db:	8b 5d bc             	mov    -0x44(%ebp),%ebx
c01027de:	89 d8                	mov    %ebx,%eax
c01027e0:	83 c3 04             	add    $0x4,%ebx
c01027e3:	8b 00                	mov    (%eax),%eax
c01027e5:	89 5d bc             	mov    %ebx,-0x44(%ebp)
c01027e8:	89 c1                	mov    %eax,%ecx
c01027ea:	89 45 b4             	mov    %eax,-0x4c(%ebp)
c01027ed:	f7 d9                	neg    %ecx
c01027ef:	0f 48 c8             	cmovs  %eax,%ecx
c01027f2:	83 f9 09             	cmp    $0x9,%ecx
c01027f5:	0f 8e 53 01 00 00    	jle    c010294e <sprintf+0x2fe>
c01027fb:	89 75 b8             	mov    %esi,-0x48(%ebp)
c01027fe:	31 db                	xor    %ebx,%ebx
c0102800:	89 7d 0c             	mov    %edi,0xc(%ebp)
c0102803:	8d b4 26 00 00 00 00 	lea    0x0(%esi,%eiz,1),%esi
c010280a:	8d b6 00 00 00 00    	lea    0x0(%esi),%esi
c0102810:	b8 cd cc cc cc       	mov    $0xcccccccd,%eax
c0102815:	89 cf                	mov    %ecx,%edi
c0102817:	89 de                	mov    %ebx,%esi
c0102819:	83 c3 01             	add    $0x1,%ebx
c010281c:	f7 e1                	mul    %ecx
c010281e:	c1 ea 03             	shr    $0x3,%edx
c0102821:	8d 04 92             	lea    (%edx,%edx,4),%eax
c0102824:	01 c0                	add    %eax,%eax
c0102826:	29 c7                	sub    %eax,%edi
c0102828:	89 c8                	mov    %ecx,%eax
c010282a:	89 d1                	mov    %edx,%ecx
c010282c:	89 7c 9d c8          	mov    %edi,-0x38(%ebp,%ebx,4)
c0102830:	83 f8 63             	cmp    $0x63,%eax
c0102833:	7f db                	jg     c0102810 <sprintf+0x1c0>
c0102835:	89 f0                	mov    %esi,%eax
c0102837:	8b 75 b8             	mov    -0x48(%ebp),%esi
c010283a:	8b 7d 0c             	mov    0xc(%ebp),%edi
c010283d:	83 c0 02             	add    $0x2,%eax
c0102840:	89 45 b8             	mov    %eax,-0x48(%ebp)
c0102843:	8b 45 b4             	mov    -0x4c(%ebp),%eax
c0102846:	89 4c 9d cc          	mov    %ecx,-0x34(%ebp,%ebx,4)
c010284a:	85 c0                	test   %eax,%eax
c010284c:	0f 88 ee 00 00 00    	js     c0102940 <sprintf+0x2f0>
c0102852:	8b 5d b8             	mov    -0x48(%ebp),%ebx
c0102855:	8b 75 c0             	mov    -0x40(%ebp),%esi
c0102858:	8b 45 b8             	mov    -0x48(%ebp),%eax
c010285b:	89 f2                	mov    %esi,%edx
c010285d:	eb 05                	jmp    c0102864 <sprintf+0x214>
c010285f:	90                   	nop
c0102860:	8b 4c 85 c8          	mov    -0x38(%ebp,%eax,4),%ecx
c0102864:	83 c2 01             	add    $0x1,%edx
c0102867:	83 c1 30             	add    $0x30,%ecx
c010286a:	88 4a ff             	mov    %cl,-0x1(%edx)
c010286d:	83 e8 01             	sub    $0x1,%eax
c0102870:	75 ee                	jne    c0102860 <sprintf+0x210>
c0102872:	8b 45 b8             	mov    -0x48(%ebp),%eax
c0102875:	01 5d c0             	add    %ebx,-0x40(%ebp)
c0102878:	c6 04 06 00          	movb   $0x0,(%esi,%eax,1)
c010287c:	8b 45 c0             	mov    -0x40(%ebp),%eax
c010287f:	83 c0 01             	add    $0x1,%eax
c0102882:	e9 69 fe ff ff       	jmp    c01026f0 <sprintf+0xa0>
c0102887:	8b 5d bc             	mov    -0x44(%ebp),%ebx
c010288a:	89 da                	mov    %ebx,%edx
c010288c:	83 c3 04             	add    $0x4,%ebx
c010288f:	89 5d bc             	mov    %ebx,-0x44(%ebp)
c0102892:	8b 12                	mov    (%edx),%edx
c0102894:	8b 5d c0             	mov    -0x40(%ebp),%ebx
c0102897:	89 45 c0             	mov    %eax,-0x40(%ebp)
c010289a:	83 c0 01             	add    $0x1,%eax
c010289d:	88 13                	mov    %dl,(%ebx)
c010289f:	e9 4c fe ff ff       	jmp    c01026f0 <sprintf+0xa0>
c01028a4:	8b 5d bc             	mov    -0x44(%ebp),%ebx
c01028a7:	89 d8                	mov    %ebx,%eax
c01028a9:	83 c3 04             	add    $0x4,%ebx
c01028ac:	8b 08                	mov    (%eax),%ecx
c01028ae:	89 5d bc             	mov    %ebx,-0x44(%ebp)
c01028b1:	83 f9 0f             	cmp    $0xf,%ecx
c01028b4:	0f 86 b6 00 00 00    	jbe    c0102970 <sprintf+0x320>
c01028ba:	8d 75 cb             	lea    -0x35(%ebp),%esi
c01028bd:	31 d2                	xor    %edx,%edx
c01028bf:	89 75 b8             	mov    %esi,-0x48(%ebp)
c01028c2:	8d b4 26 00 00 00 00 	lea    0x0(%esi,%eiz,1),%esi
c01028c9:	8d b4 26 00 00 00 00 	lea    0x0(%esi,%eiz,1),%esi
c01028d0:	89 c8                	mov    %ecx,%eax
c01028d2:	89 d3                	mov    %edx,%ebx
c01028d4:	c1 e9 04             	shr    $0x4,%ecx
c01028d7:	83 c2 01             	add    $0x1,%edx
c01028da:	83 e0 0f             	and    $0xf,%eax
c01028dd:	88 04 16             	mov    %al,(%esi,%edx,1)
c01028e0:	83 f9 0f             	cmp    $0xf,%ecx
c01028e3:	77 eb                	ja     c01028d0 <sprintf+0x280>
c01028e5:	8d 43 02             	lea    0x2(%ebx),%eax
c01028e8:	89 45 b0             	mov    %eax,-0x50(%ebp)
c01028eb:	89 7d 0c             	mov    %edi,0xc(%ebp)
c01028ee:	8b 75 c0             	mov    -0x40(%ebp),%esi
c01028f1:	0f be c1             	movsbl %cl,%eax
c01028f4:	8d 5c 15 cb          	lea    -0x35(%ebp,%edx,1),%ebx
c01028f8:	88 4c 15 cc          	mov    %cl,-0x34(%ebp,%edx,1)
c01028fc:	8b 7d b8             	mov    -0x48(%ebp),%edi
c01028ff:	89 55 b4             	mov    %edx,-0x4c(%ebp)
c0102902:	eb 12                	jmp    c0102916 <sprintf+0x2c6>
c0102904:	8d b4 26 00 00 00 00 	lea    0x0(%esi,%eiz,1),%esi
c010290b:	8d 74 26 00          	lea    0x0(%esi,%eiz,1),%esi
c010290f:	90                   	nop
c0102910:	0f be 03             	movsbl (%ebx),%eax
c0102913:	83 eb 01             	sub    $0x1,%ebx
c0102916:	83 f8 09             	cmp    $0x9,%eax
c0102919:	8d 48 30             	lea    0x30(%eax),%ecx
c010291c:	8d 50 37             	lea    0x37(%eax),%edx
c010291f:	0f 4e d1             	cmovle %ecx,%edx
c0102922:	83 c6 01             	add    $0x1,%esi
c0102925:	88 56 ff             	mov    %dl,-0x1(%esi)
c0102928:	39 df                	cmp    %ebx,%edi
c010292a:	75 e4                	jne    c0102910 <sprintf+0x2c0>
c010292c:	e9 4b fe ff ff       	jmp    c010277c <sprintf+0x12c>
c0102931:	8d b4 26 00 00 00 00 	lea    0x0(%esi,%eiz,1),%esi
c0102938:	8d b4 26 00 00 00 00 	lea    0x0(%esi,%eiz,1),%esi
c010293f:	90                   	nop
c0102940:	8b 45 c0             	mov    -0x40(%ebp),%eax
c0102943:	83 c3 02             	add    $0x2,%ebx
c0102946:	c6 00 2d             	movb   $0x2d,(%eax)
c0102949:	e9 0a ff ff ff       	jmp    c0102858 <sprintf+0x208>
c010294e:	c7 45 b8 01 00 00 00 	movl   $0x1,-0x48(%ebp)
c0102955:	31 db                	xor    %ebx,%ebx
c0102957:	e9 e7 fe ff ff       	jmp    c0102843 <sprintf+0x1f3>
c010295c:	8d 45 cb             	lea    -0x35(%ebp),%eax
c010295f:	c7 45 b0 01 00 00 00 	movl   $0x1,-0x50(%ebp)
c0102966:	31 d2                	xor    %edx,%edx
c0102968:	89 45 b8             	mov    %eax,-0x48(%ebp)
c010296b:	e9 cb fd ff ff       	jmp    c010273b <sprintf+0xeb>
c0102970:	8d 45 cb             	lea    -0x35(%ebp),%eax
c0102973:	c7 45 b0 01 00 00 00 	movl   $0x1,-0x50(%ebp)
c010297a:	31 d2                	xor    %edx,%edx
c010297c:	89 45 b8             	mov    %eax,-0x48(%ebp)
c010297f:	e9 67 ff ff ff       	jmp    c01028eb <sprintf+0x29b>
c0102984:	66 90                	xchg   %ax,%ax
c0102986:	66 90                	xchg   %ax,%ax
c0102988:	66 90                	xchg   %ax,%ax
c010298a:	66 90                	xchg   %ax,%ax
c010298c:	66 90                	xchg   %ax,%ax
c010298e:	66 90                	xchg   %ax,%ax

c0102990 <memset>:
c0102990:	55                   	push   %ebp
c0102991:	89 e5                	mov    %esp,%ebp
c0102993:	57                   	push   %edi
c0102994:	56                   	push   %esi
c0102995:	53                   	push   %ebx
c0102996:	83 ec 0c             	sub    $0xc,%esp
c0102999:	8b 7d 08             	mov    0x8(%ebp),%edi
c010299c:	8b 5d 10             	mov    0x10(%ebp),%ebx
c010299f:	8b 55 0c             	mov    0xc(%ebp),%edx
c01029a2:	89 f8                	mov    %edi,%eax
c01029a4:	83 fb 20             	cmp    $0x20,%ebx
c01029a7:	76 71                	jbe    c0102a1a <memset+0x8a>
c01029a9:	f7 d8                	neg    %eax
c01029ab:	83 e0 03             	and    $0x3,%eax
c01029ae:	83 f8 02             	cmp    $0x2,%eax
c01029b1:	0f 84 b9 00 00 00    	je     c0102a70 <memset+0xe0>
c01029b7:	83 f8 03             	cmp    $0x3,%eax
c01029ba:	0f 84 a0 00 00 00    	je     c0102a60 <memset+0xd0>
c01029c0:	83 f8 01             	cmp    $0x1,%eax
c01029c3:	0f 84 87 00 00 00    	je     c0102a50 <memset+0xc0>
c01029c9:	89 de                	mov    %ebx,%esi
c01029cb:	8d 0c 07             	lea    (%edi,%eax,1),%ecx
c01029ce:	89 d3                	mov    %edx,%ebx
c01029d0:	29 c6                	sub    %eax,%esi
c01029d2:	89 d0                	mov    %edx,%eax
c01029d4:	c1 e3 18             	shl    $0x18,%ebx
c01029d7:	c1 e0 10             	shl    $0x10,%eax
c01029da:	89 75 f0             	mov    %esi,-0x10(%ebp)
c01029dd:	09 c3                	or     %eax,%ebx
c01029df:	89 d0                	mov    %edx,%eax
c01029e1:	c1 e0 08             	shl    $0x8,%eax
c01029e4:	09 d3                	or     %edx,%ebx
c01029e6:	09 c3                	or     %eax,%ebx
c01029e8:	8d 46 fc             	lea    -0x4(%esi),%eax
c01029eb:	89 c6                	mov    %eax,%esi
c01029ed:	89 45 ec             	mov    %eax,-0x14(%ebp)
c01029f0:	8d 41 04             	lea    0x4(%ecx),%eax
c01029f3:	83 e6 fc             	and    $0xfffffffc,%esi
c01029f6:	89 45 e8             	mov    %eax,-0x18(%ebp)
c01029f9:	01 c6                	add    %eax,%esi
c01029fb:	eb 06                	jmp    c0102a03 <memset+0x73>
c01029fd:	8d 76 00             	lea    0x0(%esi),%esi
c0102a00:	83 c0 04             	add    $0x4,%eax
c0102a03:	89 19                	mov    %ebx,(%ecx)
c0102a05:	89 c1                	mov    %eax,%ecx
c0102a07:	39 f0                	cmp    %esi,%eax
c0102a09:	75 f5                	jne    c0102a00 <memset+0x70>
c0102a0b:	8b 45 ec             	mov    -0x14(%ebp),%eax
c0102a0e:	8b 5d f0             	mov    -0x10(%ebp),%ebx
c0102a11:	83 e0 fc             	and    $0xfffffffc,%eax
c0102a14:	83 e3 03             	and    $0x3,%ebx
c0102a17:	03 45 e8             	add    -0x18(%ebp),%eax
c0102a1a:	8d 0c 18             	lea    (%eax,%ebx,1),%ecx
c0102a1d:	85 db                	test   %ebx,%ebx
c0102a1f:	74 18                	je     c0102a39 <memset+0xa9>
c0102a21:	8d b4 26 00 00 00 00 	lea    0x0(%esi,%eiz,1),%esi
c0102a28:	8d b4 26 00 00 00 00 	lea    0x0(%esi,%eiz,1),%esi
c0102a2f:	90                   	nop
c0102a30:	88 10                	mov    %dl,(%eax)
c0102a32:	83 c0 01             	add    $0x1,%eax
c0102a35:	39 c8                	cmp    %ecx,%eax
c0102a37:	75 f7                	jne    c0102a30 <memset+0xa0>
c0102a39:	83 c4 0c             	add    $0xc,%esp
c0102a3c:	89 f8                	mov    %edi,%eax
c0102a3e:	5b                   	pop    %ebx
c0102a3f:	5e                   	pop    %esi
c0102a40:	5f                   	pop    %edi
c0102a41:	5d                   	pop    %ebp
c0102a42:	c3                   	ret    
c0102a43:	8d b4 26 00 00 00 00 	lea    0x0(%esi,%eiz,1),%esi
c0102a4a:	8d b6 00 00 00 00    	lea    0x0(%esi),%esi
c0102a50:	89 d1                	mov    %edx,%ecx
c0102a52:	88 0f                	mov    %cl,(%edi)
c0102a54:	e9 70 ff ff ff       	jmp    c01029c9 <memset+0x39>
c0102a59:	8d b4 26 00 00 00 00 	lea    0x0(%esi,%eiz,1),%esi
c0102a60:	88 57 02             	mov    %dl,0x2(%edi)
c0102a63:	89 d1                	mov    %edx,%ecx
c0102a65:	88 4f 01             	mov    %cl,0x1(%edi)
c0102a68:	88 0f                	mov    %cl,(%edi)
c0102a6a:	e9 5a ff ff ff       	jmp    c01029c9 <memset+0x39>
c0102a6f:	90                   	nop
c0102a70:	89 d1                	mov    %edx,%ecx
c0102a72:	eb f1                	jmp    c0102a65 <memset+0xd5>
c0102a74:	66 90                	xchg   %ax,%ax
c0102a76:	66 90                	xchg   %ax,%ax
c0102a78:	66 90                	xchg   %ax,%ax
c0102a7a:	66 90                	xchg   %ax,%ax
c0102a7c:	66 90                	xchg   %ax,%ax
c0102a7e:	66 90                	xchg   %ax,%ax

c0102a80 <putchar>:
c0102a80:	55                   	push   %ebp
c0102a81:	89 e5                	mov    %esp,%ebp
c0102a83:	53                   	push   %ebx
c0102a84:	83 ec 10             	sub    $0x10,%esp
c0102a87:	8b 5d 08             	mov    0x8(%ebp),%ebx
c0102a8a:	0f b6 c3             	movzbl %bl,%eax
c0102a8d:	50                   	push   %eax
c0102a8e:	e8 4d e7 ff ff       	call   c01011e0 <terminal_putchar>
c0102a93:	89 d8                	mov    %ebx,%eax
c0102a95:	8b 5d fc             	mov    -0x4(%ebp),%ebx
c0102a98:	c9                   	leave  
c0102a99:	c3                   	ret    
c0102a9a:	66 90                	xchg   %ax,%ax
c0102a9c:	66 90                	xchg   %ax,%ax
c0102a9e:	66 90                	xchg   %ax,%ax

c0102aa0 <__do_global_ctors_aux>:
c0102aa0:	a1 90 40 10 c0       	mov    0xc0104090,%eax
c0102aa5:	83 f8 ff             	cmp    $0xffffffff,%eax
c0102aa8:	74 36                	je     c0102ae0 <__do_global_ctors_aux+0x40>
c0102aaa:	55                   	push   %ebp
c0102aab:	89 e5                	mov    %esp,%ebp
c0102aad:	53                   	push   %ebx
c0102aae:	bb 90 40 10 c0       	mov    $0xc0104090,%ebx
c0102ab3:	83 ec 04             	sub    $0x4,%esp
c0102ab6:	8d b4 26 00 00 00 00 	lea    0x0(%esi,%eiz,1),%esi
c0102abd:	8d 76 00             	lea    0x0(%esi),%esi
c0102ac0:	ff d0                	call   *%eax
c0102ac2:	8b 43 fc             	mov    -0x4(%ebx),%eax
c0102ac5:	83 eb 04             	sub    $0x4,%ebx
c0102ac8:	83 f8 ff             	cmp    $0xffffffff,%eax
c0102acb:	75 f3                	jne    c0102ac0 <__do_global_ctors_aux+0x20>
c0102acd:	8b 5d fc             	mov    -0x4(%ebp),%ebx
c0102ad0:	c9                   	leave  
c0102ad1:	c3                   	ret    
c0102ad2:	8d b4 26 00 00 00 00 	lea    0x0(%esi,%eiz,1),%esi
c0102ad9:	8d b4 26 00 00 00 00 	lea    0x0(%esi,%eiz,1),%esi
c0102ae0:	c3                   	ret    

Disassembly of section .init:

c0102ae1 <_init>:
c0102ae1:	55                   	push   %ebp
c0102ae2:	89 e5                	mov    %esp,%ebp
c0102ae4:	e8 27 e6 ff ff       	call   c0101110 <frame_dummy>
c0102ae9:	e8 b2 ff ff ff       	call   c0102aa0 <__do_global_ctors_aux>
c0102aee:	5d                   	pop    %ebp
c0102aef:	c3                   	ret    

Disassembly of section .fini:

c0102af0 <_fini>:
c0102af0:	55                   	push   %ebp
c0102af1:	89 e5                	mov    %esp,%ebp
c0102af3:	e8 98 e5 ff ff       	call   c0101090 <__do_global_dtors_aux>
c0102af8:	5d                   	pop    %ebp
c0102af9:	c3                   	ret    
