
kernel.bin:     elf32-i386 dosya biçemi

Contents of section .text:
 100000 02b0ad1b 03000000 fb4f52e4 66906690  .........OR.f.f.
 100010 b8302010 003d3020 10007424 b8000000  .0 ..=0 ..t$....
 100020 0085c074 1b5589e5 83ec1468 30201000  ...t.U.....h0 ..
 100030 ffd083c4 10c9c38d b4260000 00006690  .........&....f.
 100040 c38db426 00000000 8db42600 00000090  ...&......&.....
 100050 b8302010 002d3020 100089c2 c1e81fc1  .0 ..-0 ........
 100060 fa0201d0 d1f87428 ba000000 0085d274  ......t(.......t
 100070 1f5589e5 83ec1050 68302010 00ffd283  .U.....Ph0 .....
 100080 c410c9c3 8db42600 0000008d 74260090  ......&.....t&..
 100090 c38db426 00000000 8db42600 00000090  ...&......&.....
 1000a0 803d0030 10000075 6755a104 30100089  .=.0...ugU..0...
 1000b0 e556be28 20100053 bb2c2010 0081eb28  .V.( ..S., ....(
 1000c0 201000c1 fb0283eb 0139d873 178d7600   ........9.s..v.
 1000d0 83c001a3 04301000 ff1486a1 04301000  .....0.......0..
 1000e0 39d872ec e827ffff ffb80000 000085c0  9.r..'..........
 1000f0 741083ec 0c680c12 1000e801 ffefff83  t....h..........
 100100 c410c605 00301000 018d65f8 5b5e5dc3  .....0....e.[^].
 100110 c38db426 00000000 8db42600 00000090  ...&......&.....
 100120 b8000000 0085c074 275589e5 83ec1068  .......t'U.....h
 100130 08301000 680c1210 00e8c2fe efff83c4  .0..h...........
 100140 10c9e909 ffffff8d b4260000 00006690  .........&....f.
 100150 e9fbfeff ff669090 0f011518 101000ea  .....f..........
 100160 66011000 080066b9 10008ed9 8ec18ee1  f.....f.........
 100170 8ee98ed1 bc207010 005350fc e8800900  ..... p..SP.....
 100180 00e80a05 0000f4eb fd8d7600 8b442408  ..........v..D$.
 100190 8b542404 eec36690 8b442408 8b542404  .T$...f..D$..T$.
 1001a0 66efc390 8b442408 8b542404 efc36690  f....D$..T$...f.
 1001b0 8b542404 31c0ecc3 8b542404 31c066ed  .T$.1....T$.1.f.
 1001c0 c38d7600 8b542404 31c0edc3 66906690  ..v..T$.1...f.f.
 1001d0 0fb61504 201000b8 00800b00 8d742600  .... ........t&.
 1001e0 c6002083 c0028850 ff3da08f 0b0075f0  .. ....P.=....u.
 1001f0 c38db426 00000000 8db42600 00000090  ...&......&.....
 100200 55a12470 100089e5 578b7d08 565389fb  U.$p....W.}.VS..
 100210 80fb0a74 2d8b0d20 7010008d 14800fb6  ...t-.. p.......
 100220 1d042010 00c1e204 01ca01d2 889a0180  .. .............
 100230 0b0089fb 889a0080 0b008d51 0183f94f  ...........Q...O
 100240 751cc705 20701000 00000000 83c001a3  u... p..........
 100250 24701000 83f81974 105b5e5f 5dc38915  $p.....t.[^_]...
 100260 20701000 83f81975 f0bb4081 0b0031ff   p.....u..@...1.
 100270 be500000 008db426 00000000 8d742600  .P.....&.....t&.
 100280 89f98d83 60ffffff 29f101c9 8d742600  ....`...)....t&.
 100290 0fb71066 89140183 c00239d8 75f283c6  ...f......9.u...
 1002a0 5083c750 8d98a000 000081fe d0070000  P..P............
 1002b0 75ceb800 8f0b008d b4260000 00006690  u........&....f.
 1002c0 0fb61504 20100083 c002c640 fe208850  .... ......@. .P
 1002d0 ff3da08f 0b0075e8 c7052470 10001800  .=....u...$p....
 1002e0 00005b5e 5f5dc38d b4260000 00006690  ..[^_]...&....f.
 1002f0 5589e553 83ec048b 5d080fb6 0384c074  U..S....]......t
 100300 258db426 00000000 8db42600 00000090  %..&......&.....
 100310 83ec0c83 c30150e8 e4feffff 0fb60383  ......P.........
 100320 c41084c0 75ea8b5d fcc9c390 68241010  ....u..]....h$..
 100330 00e99900 00006690 cf8d7600 68411010  ......f...v.hA..
 100340 00e98900 00006690 cf8d7600 cf8d7600  ......f...v...v.
 100350 68631010 00eb7890 68781010 00eb7090  hc....x.hx....p.
 100360 68871010 00eb6890 68680310 00eb6090  h.....h.hh....`.
 100370 68a91010 00eb5890 68c51010 00eb5090  h.....X.h.....P.
 100380 68d11010 00eb4890 68e51010 00eb4090  h.....H.h.....@.
 100390 68f91010 00eb3890 680c1110 00eb3090  h.....8.h.....0.
 1003a0 68171110 00eb2890 68221110 00eb2090  h.....(.h".... .
 1003b0 68321110 00eb1890 68401110 00eb1090  h2......h@......
 1003c0 684f1110 00eb0890 68681110 00eb00e8  hO......hh......
 1003d0 1cffffff faf46690 66906690 66906690  ......f.f.f.f.f.
 1003e0 55b90800 000089e5 8b45088b 550c6689  U........E..U.f.
 1003f0 48026689 108b4d10 c1ea1066 89500688  H.f...M....f.P..
 100400 4805c640 04005dc3 8db42600 00000090  H..@..]...&.....
 100410 5589e58b 45088d90 00080000 8d742600  U...E........t&.
 100420 31c9c640 050083c0 08668948 f8b90800  1..@.....f.H....
 100430 00006689 48fa31c9 668948fe c640fc00  ..f.H.1.f.H..@..
 100440 39d075dc 5dc38db4 26000000 008d7600  9.u.]...&.....v.
 100450 55ba2c03 1000b908 00000089 e58b4508  U.,...........E.
 100460 668910c1 ea106689 5006ba38 03100066  f.....f.P..8...f
 100470 895008c1 ea106689 500eba3c 03100066  .P....f.P..<...f
 100480 895010c1 ea106689 5016ba48 03100066  .P....f.P..H...f
 100490 895018c1 ea106689 501eba4c 03100066  .P....f.P..L...f
 1004a0 895020c1 ea106689 5026ba50 03100066  .P ...f.P&.P...f
 1004b0 895028c1 ea106689 502eba58 03100066  .P(...f.P..X...f
 1004c0 895030c1 ea106689 5036ba60 03100066  .P0...f.P6.`...f
 1004d0 895038c1 ea106689 503eba68 03100066  .P8...f.P>.h...f
 1004e0 895040c1 ea106689 5046ba70 03100066  .P@...f.PF.p...f
 1004f0 895048c1 ea106689 504eba78 031000c7  .PH...f.PN.x....
 100500 40020800 008fc740 0a080000 8fc74012  @......@......@.
 100510 0800008e c7401a08 00008fc7 40220800  .....@......@"..
 100520 008fc740 2a080000 8fc74032 0800008f  ...@*.....@2....
 100530 c7403a08 00008fc7 40420800 008fc740  .@:.....@B.....@
 100540 4a080000 8f668950 50c1ea10 66895056  J....f.PP...f.PV
 100550 ba800310 00668950 58c1ea10 6689505e  .....f.PX...f.P^
 100560 ba880310 00668950 60c1ea10 66895066  .....f.P`...f.Pf
 100570 ba900310 00668950 68c1ea10 6689506e  .....f.Ph...f.Pn
 100580 ba980310 00668950 70c1ea10 66895076  .....f.Pp...f.Pv
 100590 baa00310 00668990 80000000 c1ea1066  .....f.........f
 1005a0 89908600 0000baa8 03100066 89908800  ...........f....
 1005b0 0000c1ea 10668990 8e000000 bab00310  .....f..........
 1005c0 00668990 90000000 c1ea1066 89909600  .f.........f....
 1005d0 0000bab8 03100066 89909800 0000c1ea  .......f........
 1005e0 10668990 9e000000 bac00310 00668990  .f...........f..
 1005f0 a0000000 c1ea1066 8990a600 0000bac8  .......f........
 100600 031000c7 40520800 008fc740 5a080000  ....@R.....@Z...
 100610 8f668948 62c64065 8fc64064 00c7406a  .f.Hb.@e..@d..@j
 100620 0800008f c7407208 00008fc7 40780000  .....@r.....@x..
 100630 0800c740 7c000000 00c78082 00000008  ...@|...........
 100640 00008fc7 808a0000 00080000 8fc78092  ................
 100650 00000008 00008fc7 809a0000 00080000  ................
 100660 8fc780a2 00000008 00008f66 8990a800  ...........f....
 100670 0000c1ea 10668990 ae000000 c780aa00  .....f..........
 100680 00000800 008f5dc3 66906690 66906690  ......].f.f.f.f.
 100690 5589e557 565383ec 0c8b5d08 8b750ce8  U..WVS....]..u..
 1006a0 2cfbffff 83ec0c68 40701000 e85ffdff  ,......h@p..._..
 1006b0 ffc70424 40701000 e893fdff ffb8ff07  ...$@p..........
 1006c0 0000c705 32701000 40701000 66a33070  ....2p..@p..f.0p
 1006d0 10000f01 1d307010 00fb83c4 1081fb02  .....0p.........
 1006e0 b0ad2b0f 85970000 00f60640 747283ec  ..+........@tr..
 1006f0 0c686112 1000e8a5 00000083 c410837e  .ha............~
 100700 2c178b5e 30764231 ff8db426 00000000  ,..^0vB1...&....
 100710 8b43148b 530483c7 0183c318 ff348508  .C..S........4..
 100720 2010008b 43f401d0 83e80150 52686d12   ...C......PRhm.
 100730 1000e869 000000b8 abaaaaaa f7662c83  ...i.........f,.
 100740 c410c1ea 0439fa77 c78d65f4 5b5e5f5d  .....9.w..e.[^_]
 100750 c38db426 00000000 8db42600 00000090  ...&......&.....
 100760 c7450838 1210008d 65f45b5e 5f5de92d  .E.8....e.[^_].-
 100770 0000008d b4260000 00008db6 00000000  .....&..........
 100780 c7450810 1210008d 65f45b5e 5f5de90d  .E......e.[^_]..
 100790 00000066 90669066 90669066 90669090  ...f.f.f.f.f.f..
 1007a0 5589e557 568d450c 5383ec4c 8945b08b  U..WV.E.S..L.E..
 1007b0 4508c745 b4000000 000fbe00 84c0746e  E..E..........tn
 1007c0 8d7dc0eb 298db426 00000000 8d742600  .}..)..&.....t&.
 1007d0 83ec0c83 45080150 e8c30200 008b4508  ....E..P......E.
 1007e0 8345b401 83c4100f be0084c0 74403c25  .E..........t@<%
 1007f0 75de8b45 080fbe50 018d42a8 3c207710  u..E...P..B.< w.
 100800 0fb6c0ff 24858811 10008db6 00000000  ....$...........
 100810 83ec0c52 e8870200 008345b4 0183c410  ...R......E.....
 100820 83450802 8b45080f be0084c0 75c08b45  .E...E......u..E
 100830 b48d65f4 5b5e5f5d c38db426 00000000  ..e.[^_]...&....
 100840 8b55b089 d083c204 8b008955 b083f80f  .U.........U....
 100850 0f863102 000031d2 8db42600 00000090  ..1...1...&.....
 100860 89c189d3 c1e80483 c20183e1 0f894c97  ..............L.
 100870 fc83f80f 77ea83c3 02894495 c08d349f  ....w.....D...4.
 100880 eb118db4 26000000 008db426 00000000  ....&......&....
 100890 8b46fc0f be80b212 100083ec 0c83ee04  .F..............
 1008a0 50e8fa01 000083c4 1039f775 e3015db4  P........9.u..].
 1008b0 e96bffff ff8db426 00000000 8d742600  .k.....&.....t&.
 1008c0 8b4db089 c883c104 8b18894d b00fbe03  .M.........M....
 1008d0 84c00f84 48ffffff 31f68db6 00000000  ....H...1.......
 1008e0 83ec0c83 c60150e8 b4010000 0fbe0433  ......P........3
 1008f0 83c41084 c075e901 75b4e921 ffffff90  .....u..u..!....
 100900 8b5db089 d883c304 8b00895d b089c389  .].........]....
 100910 45a8f7db 0f48d883 fb090f8e 73010000  E....H......s...
 100920 31f68db4 26000000 008db426 00000000  1...&......&....
 100930 b8cdcccc cc89d989 75ac83c6 01f7e3c1  ........u.......
 100940 ea038d04 9201c029 c189d889 d3894cb7  .......)......L.
 100950 fc83f863 7fda8b55 ac83c202 8b45a889  ...c...U.....E..
 100960 5cb5c089 55ac85c0 0f88f200 00008d34  \...U..........4
 100970 97eb108d b4260000 00008db6 00000000  .....&..........
 100980 8b5efc83 ec0c83c3 3083ee04 53e80e01  .^......0...S...
 100990 000083c4 1039f775 e78b75ac 0175b4e9  .....9.u..u..u..
 1009a0 7cfeffff 8db42600 0000008d 74260090  |.....&.....t&..
 1009b0 8b55b083 ec0c89d0 83c204ff 308955b0  .U..........0.U.
 1009c0 e8db0000 008345b4 0183c410 e94ffeff  ......E......O..
 1009d0 ff8db426 00000000 8db42600 00000090  ...&......&.....
 1009e0 8b4db089 c883c104 8b00894d b083f80f  .M.........M....
 1009f0 0f868800 000031d2 8db42600 00000090  ......1...&.....
 100a00 89c189d3 c1e80483 c20183e1 0f894c97  ..............L.
 100a10 fc83f80f 77ea83c3 02894495 c08d349f  ....w.....D...4.
 100a20 eb118db4 26000000 008db426 00000000  ....&......&....
 100a30 8b46fc0f be80c312 100083ec 0c83ee04  .F..............
 100a40 50e85a00 000083c4 1039f775 e3015db4  P.Z......9.u..].
 100a50 e9cbfdff ff8db426 00000000 8d742600  .......&.....t&.
 100a60 83ec0c89 55a86a2d e8330000 008d4602  ....U.j-.3....F.
 100a70 8b55a883 c4108945 ace9f0fe ffffbb01  .U.....E........
 100a80 00000031 d2eb92bb 01000000 31d2e9e6  ...1........1...
 100a90 fdffffba 01000000 31f6e9bd feffff90  ........1.......
 100aa0 5589e553 83ec108b 5d080fb6 c350e84d  U..S....]....P.M
 100ab0 f7ffff89 d88b5dfc c9c36690 66906690  ......]...f.f.f.
 100ac0 a1202010 0083f8ff 74365589 e553bb20  .  .....t6U..S. 
 100ad0 20100083 ec048db4 26000000 008d7600   .......&.....v.
 100ae0 ffd08b43 fc83eb04 83f8ff75 f38b5dfc  ...C.......u..].
 100af0 c9c38db4 26000000 008db426 00000000  ....&......&....
 100b00 c3                                   .               
Contents of section .init:
 100b01 5589e5e8 17f6ffff e8b2ffff ff5dc3    U............]. 
Contents of section .fini:
 100b10 5589e5e8 88f5ffff 5dc3               U.......].      
Contents of section .rodata:
 101000 00000000 00000000 ffff0000 009acf00  ................
 101010 ffff0000 0092cf00 17000010 10000000  ................
 101020 00800b00 44697669 64652045 72726f72  ....Divide Error
 101030 00446562 75672045 78636570 74696f6e  .Debug Exception
 101040 004e4d49 20496e74 65727275 70740042  .NMI Interrupt.B
 101050 7265616b 706f696e 74004f76 6572666c  reakpoint.Overfl
 101060 6f770042 6f756e64 2052616e 67652045  ow.Bound Range E
 101070 78636565 64656400 496e7661 6c696420  xceeded.Invalid 
 101080 4f70636f 64650044 65766963 65204e6f  Opcode.Device No
 101090 74204176 61696c61 626c6500 446f7562  t Available.Doub
 1010a0 6c652046 61756c74 00436f70 726f6365  le Fault.Coproce
 1010b0 73736f72 20536567 6d656e74 204f7665  ssor Segment Ove
 1010c0 7272756e 00496e76 616c6964 20545353  rrun.Invalid TSS
 1010d0 00536567 6d656e74 204e6f74 20507265  .Segment Not Pre
 1010e0 73656e74 00537461 636b2053 65676d65  sent.Stack Segme
 1010f0 6e742046 61756c74 0047656e 6572616c  nt Fault.General
 101100 2050726f 74656374 696f6e00 50616765   Protection.Page
 101110 20466175 6c74004d 61746820 4572726f   Fault.Math Erro
 101120 7200416c 69676e6d 656e7420 43686563  r.Alignment Chec
 101130 6b004d61 6368696e 65204368 65636b00  k.Machine Check.
 101140 53696d64 20457863 65707469 6f6e0056  Simd Exception.V
 101150 69727475 616c697a 6174696f 6e204578  irtualization Ex
 101160 63657074 696f6e00 436f6e74 726f6c20  ception.Control 
 101170 50726f74 65637469 6f6e2045 78636570  Protection Excep
 101180 74696f6e 00000000 e0091000 10081000  tion............
 101190 10081000 10081000 10081000 10081000  ................
 1011a0 10081000 10081000 10081000 10081000  ................
 1011b0 10081000 b0091000 00091000 10081000  ................
 1011c0 10081000 10081000 10081000 10081000  ................
 1011d0 10081000 10081000 10081000 10081000  ................
 1011e0 10081000 10081000 10081000 10081000  ................
 1011f0 10081000 c0081000 10081000 10081000  ................
 101200 10081000 10081000 40081000           ........@...    
Contents of section .eh_frame:
 10120c 00000000                             ....            
Contents of section .rodata.str1.4:
 101210 4d757374 20626520 6c6f6164 65642066  Must be loaded f
 101220 726f6d20 6d756c74 69626f6f 74206c6f  rom multiboot lo
 101230 61646572 2e0d0a00 4d756c74 69626f6f  ader....Multiboo
 101240 74206469 646e2774 2070726f 76696465  t didn't provide
 101250 2061206d 656d6f72 79206d61 702e0d0a   a memory map...
 101260 00                                   .               
Contents of section .rodata.str1.1:
 101261 4d454d4f 5259204d 41500a00 20202020  MEMORY MAP..    
 101271 20202020 2558202d 2025583a 2025730a      %X - %X: %s.
 101281 00417661 696c6162 6c650052 65736572  .Available.Reser
 101291 76656400 41637069 20526563 6c61696d  ved.Acpi Reclaim
 1012a1 61626c65 004e5653 00426164 2052616d  able.NVS.Bad Ram
 1012b1 00303132 33343536 37383961 62636465  .0123456789abcde
 1012c1 66003031 32333435 36373839 41424344  f.0123456789ABCD
 1012d1 454600                               EF.             
Contents of section .data:
 102000 00000000 07000000 6c121000 82121000  ........l.......
 102010 8c121000 95121000 a6121000 aa121000  ................
Contents of section .ctors:
 102020 ffffffff 00000000                    ........        
Contents of section .dtors:
 102028 ffffffff 00000000                    ........        
Contents of section .debug_line:
 0000 54000000 05000400 2e000000 010101fb  T...............
 0010 0e0d0001 01010100 00000100 00010101  ................
 0020 1f020000 00001100 00000201 1f020f02  ................
 0030 16000000 01160000 00010005 02010b10  ................
 0040 00172102 02000101 00050210 0b100003  ..!.............
 0050 0d012102 02000101 6c000000 05000400  ..!.....l.......
 0060 2e000000 010101fb 0e0d0001 01010100  ................
 0070 00000100 00010101 1f020000 00001100  ................
 0080 00000201 1f020f02 1d000000 011d0000  ................
 0090 00010005 02580110 00031a01 77764b2f  .....X......wvK/
 00a0 2f2f2f30 5a212222 5c5b215e 4b4b2142  ///0Z!""\[!^KK!B
 00b0 4b4b2f34 4b4b2142 4b2f2126 4b2f2f50  KK/4KK!BK/!&K//P
 00c0 4b2f2102 01000101 90010000 05000400  K/!.............
 00d0 41000000 010101fb 0e0d0001 01010100  A...............
 00e0 00000100 00010101 1f030000 00001100  ................
 00f0 00002f00 00000201 1f020f05 29000000  ../.........)...
 0100 01290000 00016500 0000026e 00000002  .)....e....n....
 0110 7b000000 01051c00 0502d001 10000310  {...............
 0120 01050513 14050f06 01050506 76051201  ............v...
 0130 050f0610 05090002 04030693 05130002  ................
 0140 04030601 05120002 04033b05 13000204  ..........;.....
 0150 033d052d 00020403 063b0512 00020403  .=.-.....;......
 0160 01050106 77052206 f4050513 14052206  ....w.".......".
 0170 0f050c25 05225305 07850509 06781305  ...%."S......x..
 0180 20061105 14660527 3c051474 05203c05   ....f.'<..t. <.
 0190 0f2e0527 2e050cd7 05050640 05070601  ...'.......@....
 01a0 05090659 050d0601 0509069f 050c0601  ...Y............
 01b0 05050685 05070601 0501030e 58050c03  ............X...
 01c0 69580505 06030966 05070601 05200608  iX.....f..... ..
 01d0 af051100 020403f3 05350002 04030601  .........5......
 01e0 05310002 04030673 05200002 04030105  .1.....s. ......
 01f0 2b000204 0273051a 00020402 01050d00  +....s..........
 0200 02040302 22190531 00020403 0601051c  ...."..1........
 0210 00020403 73053100 0204033d 052d0002  ....s.1....=.-..
 0220 04030673 051c0002 04030105 0978050c  ...s.........x..
 0230 06010501 a006d905 05130501 06117405  ..............t.
 0240 0b063d05 09085905 1c063c05 093c050b  ..=...Y...<..<..
 0250 06650501 06a03c02 02000101 6e000000  .e....<.....n...
 0260 05000400 2e000000 010101fb 0e0d0001  ................
 0270 01010100 00000100 00010101 1f020000  ................
 0280 00001100 00000201 1f020f02 81000000  ................
 0290 01810000 00010005 022c0310 00031f01  .........,......
 02a0 597a5059 7a505059 42594259 42594259  YzPYzPPYBYBYBYBY
 02b0 42594259 42594259 42594259 42594259  BYBYBYBYBYBYBYBY
 02c0 42594259 4259325d 21020100 01011c04  BYBYBY2]!.......
 02d0 00000500 04003c00 00000101 01fb0e0d  ......<.........
 02e0 00010101 01000000 01000001 01011f03  ................
 02f0 00000000 11000000 2f000000 02011f02  ......../.......
 0300 0f049b00 0000019b 00000001 6e000000  ............n...
 0310 02a70000 00010501 000502e0 03100016  ................
 0320 05051305 01061105 12220501 562e0512  ........."..V...
 0330 68051049 0505063d 13051306 0105213d  h..I...=......!=
 0340 05113c05 13490505 063d1305 11060105  ..<..I...=......
 0350 014b06a1 05051313 05120105 01061005  .K..............
 0360 09000204 0306f605 06000204 03037201  ..............r.
 0370 05050002 04031405 10000204 03060105  ................
 0380 13000204 03300512 00020403 52051000  .....0......R...
 0390 02040303 763c0505 00020403 064b0512  ....v<.......K..
 03a0 00020403 06010505 00020403 06910002  ................
 03b0 04031305 11000204 03060105 05000204  ................
 03c0 03066705 11000204 03060100 0204034a  ..g............J
 03d0 052a0002 04030618 05120002 04030105  .*..............
 03e0 01064e06 bd050513 14050106 0f051003  ..N.............
 03f0 6f200512 59050103 10582e05 0606036d  o ..Y....X.....m
 0400 3c050514 05100601 0505063d 13130521  <..........=...!
 0410 06010511 3c050506 4b051006 0e052193  ....<...K.....!.
 0420 05113c05 10470521 9305113c 05104705  ..<..G.!...<..G.
 0430 21930511 3c051047 05219305 113c0510  !...<..G.!...<..
 0440 47052193 05113c05 10470521 9305113c  G.!...<..G.!...<
 0450 05104705 21930511 3c051047 05219305  ..G.!...<..G.!..
 0460 113c0510 47052193 05113c05 10470512  .<..G.!...<..G..
 0470 59740505 06031401 05060369 01050514  Yt.........i....
 0480 13131313 0512060f 74050506 03150105  ........t.......
 0490 06036801 05051413 13131305 12060f74  ..h............t
 04a0 05050603 16010506 03670105 05141313  .........g......
 04b0 13130512 060f7405 05060317 01050603  ......t.........
 04c0 66010505 14131313 13051206 0f740505  f............t..
 04d0 06031801 05060365 01050514 13131313  .......e........
 04e0 0512060f 74050506 03190105 06036401  ....t.........d.
 04f0 05051413 13131305 12060f74 05050603  ...........t....
 0500 1a010506 03630105 05141313 13130512  .....c..........
 0510 060f7405 0506031b 01050603 62010505  ..t.........b...
 0520 14131313 13051206 0f740505 06031c01  .........t......
 0530 05060361 01050514 13131313 0512060f  ...a............
 0540 74050506 031d0105 06036001 05051405  t.........`.....
 0550 10060105 05064b13 13052106 0105113c  ......K...!....<
 0560 0505064b 0510060e 05219305 113c0510  ...K.....!...<..
 0570 47052193 05113c05 10470521 9305113c  G.!...<..G.!...<
 0580 05104705 21930511 3c051047 0521bd05  ..G.!...<..G.!..
 0590 113c0510 710521bd 05113c05 10710521  .<..q.!...<..q.!
 05a0 bd05113c 05107105 21bd0511 3c051071  ...<..q.!...<..q
 05b0 0521bd05 113c0510 71051259 74050506  .!...<..q..Yt...
 05c0 031e0105 06035f01 05051413 13131305  ......_.........
 05d0 12060f74 05050603 1f010506 035e0105  ...t.........^..
 05e0 05141305 12060105 05064b05 13060105  ..........K.....
 05f0 05064b13 05110601 4a050506 031d0105  ..K.....J.......
 0600 06035d01 05051413 13131305 12060f74  ..]............t
 0610 05050603 21010506 035c0105 05141313  ....!....\......
 0620 13130512 060f7405 05060322 01050603  ......t...."....
 0630 5b010505 14131313 13051006 0e051178  [..............x
 0640 74050506 03200105 06035a01 05051413  t.... ....Z.....
 0650 13131305 12060f9e 05050603 24010506  ............$...
 0660 03590105 05141313 13130512 060f9e05  .Y..............
 0670 05060325 01050603 58010505 14131313  ...%....X.......
 0680 13051206 0f9e0505 06032601 05060357  ..........&....W
 0690 01050514 13131313 0512060f 9e050506  ................
 06a0 03270105 06035601 05051413 13131305  .'....V.........
 06b0 12060f9e 05050603 28010506 03550105  ........(....U..
 06c0 05140510 06010505 06751313 05210601  .........u...!..
 06d0 05113c05 05067505 12060f9e 05050603  ..<...u.........
 06e0 2a010515 01050106 15020200 01015301  *.............S.
 06f0 00000500 04005300 00000101 01fb0e0d  ......S.........
 0700 00010101 01000000 01000001 01011f05  ................
 0710 00000000 2f000000 11000000 bc000000  ..../...........
 0720 47010000 02011f02 0f07b300 000000b3  G...............
 0730 00000000 6e000000 01da0000 0000a700  ....n...........
 0740 000002e6 00000003 ee000000 04054400  ..............D.
 0750 05029006 10000318 01050514 14054406  ..............D.
 0760 0e900505 6a065ac9 bc051006 01050f59  ....j.Z........Y
 0770 05109d05 05066714 75220507 06010505  ......g.u"......
 0780 06e90507 06010505 065dca05 12061305  .........]......
 0790 4b730505 063d0512 01050b06 2e050900  Ks...=..........
 07a0 02040306 92000204 03061505 12000204  ................
 07b0 03390509 00020403 063d0002 04031405  .9.......=......
 07c0 54000204 03060d05 12000204 033c0509  T............<..
 07d0 00020403 41051e00 02040372 05120002  ....A......r....
 07e0 04035805 09000204 033e0002 0403ba05  ..X......>......
 07f0 54000204 03060d05 12000204 03010531  T..............1
 0800 00020403 06010512 00020403 82053100  ..............1.
 0810 0204033c 05120002 04033c05 01030a4a  ...<......<....J
 0820 74050906 036ff205 01060311 74050903  t....o......t...
 0830 6f740608 1b050106 03167405 09036f74  ot........t...ot
 0840 02050001 01e00200 00050004 00450000  .............E..
 0850 00010101 fb0e0d00 01010101 00000001  ................
 0860 00000101 011f0403 01000012 0100002f  .............../
 0870 0000005d 00000002 011f020f 05fa0000  ...]............
 0880 0001fa00 00000118 01000002 6e000000  ............n...
 0890 02e60000 00030501 000502a0 07100003  ................
 08a0 d1000105 05131305 01061005 055a0501  .............Z..
 08b0 3a05054c 063e1405 0b010511 06010509  :..L.>..........
 08c0 3a051176 050b3c05 1106083f 0520063c  :..v..<....?. .<
 08d0 05114a06 67060e05 18404a05 0b063805  ..J.g....@J...8.
 08e0 11060105 0b3c050d 064c050f 06010511  .....<...L......
 08f0 064f051e 06010511 74051906 03170866  .O......t......f
 0900 91130520 06110519 4b3c0511 06160517  ... ....K<......
 0910 0601050b 06035c4a 05110601 050b6605  ......\J......f.
 0920 01032b4a 05190603 6b082005 21060105  ..+J....k. .!...
 0930 1906c905 1303af7f 01050514 05130369  ...............i
 0940 01050514 13131405 0d010509 068d06a2  ................
 0950 051b0601 050b4b05 133b051b 3c3c0509  ......K..;..<<..
 0960 064b050d 10050f06 5d050506 3c051306  .K......]...<...
 0970 01050506 4c14050b 01051f06 082f0509  ....L......../..
 0980 063c0601 050b9d05 093d050b 06650505  .<.......=...e..
 0990 77060105 190603d9 00010521 06110519  w..........!....
 09a0 3d060372 f2051f06 01051906 c9051303  =..r............
 09b0 41010505 1413050b 01050c06 01050b3c  A..............<
 09c0 05098106 85051606 3c05093c 050b0664  ........<..<...d
 09d0 050c0601 050b4a74 05150603 c1000105  ......Jt........
 09e0 21061105 153d0519 0664051d 0601c82e  !....=...d......
 09f0 0519063d 05130347 01050514 13131414  ...=...G........
 0a00 050d5b05 09088305 1b060105 139e051b  ..[.............
 0a10 3c050bd7 051b2d05 09064b05 0d10050f  <.....-...K.....
 0a20 065d3c05 05063c05 07061605 13380505  .]<...<......8..
 0a30 064c1405 0f060e05 0740050b 0687063c  .L.......@.....<
 0a40 0517e505 09063c06 01050b65 05093d05  ......<....e..=.
 0a50 0b066505 05770601 0521031d 01051506  ..e..w...!......
 0a60 67051903 75081205 1d060105 193d051d  g...u........=..
 0a70 3b051959 051d2d05 19063d59 05151305  ;..Y..-...=Y....
 0a80 20061105 154b0519 06030e08 66052106   ....K......f.!.
 0a90 01051906 c9051303 b07f0105 05140513  ................
 0aa0 03640105 05141313 14050d01 0509068d  .d..............
 0ab0 06a2051b 0601050b 4b05133b 051b3c3c  ........K..;..<<
 0ac0 0509064b 050d1005 0f065d05 05063c05  ...K......]...<.
 0ad0 13060105 05064c14 050b0105 1f06082f  ......L......../
 0ae0 0509063c 0601050b 9d05093d 050b0665  ...<.......=...e
 0af0 05057706 01052103 d8000105 19063d05  ..w...!.......=.
 0b00 09060353 f2066675 050c0601 ba58050d  ...S..fu.....X..
 0b10 03470105 09554a05 0d150509 552e5805  .G...UJ.....U.X.
 0b20 0d033101 020c0001 016a0000 00050004  ..1......j......
 0b30 00400000 00010101 fb0e0d00 01010101  .@..............
 0b40 00000001 00000101 011f0403 01000012  ................
 0b50 0100002f 00000031 01000002 011f020f  .../...1........
 0b60 04270100 00012701 0000016e 00000002  .'....'....n....
 0b70 ee000000 03051500 0502a00a 10001905  ................
 0b80 09150515 060f7405 093f0505 06950501  ......t..?......
 0b90 06130207 00010152 00000005 0004002e  .......R........
 0ba0 00000001 0101fb0e 0d000101 01010000  ................
 0bb0 00010000 0101011f 02000000 00110000  ................
 0bc0 0002011f 020f0256 01000001 56010000  .......V....V...
 0bd0 01000502 0e0b1000 14210201 00010100  .........!......
 0be0 0502180b 10001921 02010001 01        .......!.....   
Contents of section .debug_line_str:
 0000 2f6d6e74 2f686f73 742f6b65 726e656c  /mnt/host/kernel
 0010 00693338 36006372 74692e53 00626f6f  .i386.crti.S.boo
 0020 742e5300 69333836 2f747479 2e63002f  t.S.i386/tty.c./
 0030 686f6d65 2f796173 61722f6f 70742f63  home/yasar/opt/c
 0040 726f7373 2f6c6962 2f676363 2f693638  ross/lib/gcc/i68
 0050 362d656c 662f3131 2e322e30 2f696e63  6-elf/11.2.0/inc
 0060 6c756465 00737464 6465662e 68007374  lude.stddef.h.st
 0070 64696e74 2d676363 2e680076 67612e68  dint-gcc.h.vga.h
 0080 00657863 65707469 6f6e5f68 616e646c  .exception_handl
 0090 6572732e 53006933 38362f69 6e746572  ers.S.i386/inter
 00a0 72757074 2e630069 6e746572 72757074  rupt.c.interrupt
 00b0 2e68006b 65726e65 6c2e6300 2f6d6e74  .h.kernel.c./mnt
 00c0 2f686f73 742f7379 73726f6f 742f7573  /host/sysroot/us
 00d0 722f696e 636c7564 65006d75 6c746962  r/include.multib
 00e0 6f6f742e 68007374 64696f2e 68007474  oot.h.stdio.h.tt
 00f0 792e6800 73746469 6f2f7072 696e7466  y.h.stdio/printf
 0100 2e63002f 6d6e742f 686f7374 2f6c6962  .c./mnt/host/lib
 0110 63007374 64696f00 73746461 72672e68  c.stdio.stdarg.h
 0120 00737464 696f2f70 75746368 61722e63  .stdio/putchar.c
 0130 002f6d6e 742f686f 73742f73 7973726f  ./mnt/host/sysro
 0140 6f742f75 73722f69 6e636c75 64652f6b  ot/usr/include/k
 0150 65726e65 6c006372 746e2e53 00        ernel.crtn.S.   
Contents of section .debug_info:
 0000 1f000000 05000104 00000000 01000000  ................
 0010 000c0000 00000000 000c0000 001d0000  ................
 0020 00018020 00000005 00010412 00000001  ... ............
 0030 58000000 58011000 74290000 000c0000  X...X...t)......
 0040 001d0000 000180b2 01000005 00010426  ...............&
 0050 00000008 b0000000 0c240000 00000000  .........$......
 0060 00d00110 005b0100 00c80000 00010405  .....[..........
 0070 1a010000 02460000 0002d117 39000000  .....F......9...
 0080 01040799 00000009 0405696e 74000101  ..........int...
 0090 064f0000 00010205 23010000 01080515  .O......#.......
 00a0 01000002 88070000 032e1868 00000001  ...........h....
 00b0 01084d00 00000102 075b0000 00010807  ..M......[......
 00c0 94000000 0104079e 0000000a 6e000000  ............n...
 00d0 02041a10 aa000000 0b630004 1b0d5c00  .........c....\.
 00e0 0000000c 8e000000 041c0d5c 00000001  ...........\....
 00f0 00026f00 0000041d 03840000 0003726f  ..o...........ro
 0100 77000b2d 00000005 03247010 0003636f  w..-.....$p...co
 0110 6c000c2d 00000005 03207010 00048e00  l..-..... p.....
 0120 00000d09 5c000000 05030420 1000042d  ....\...... ...-
 0130 0100000e 12fd0000 00050320 10100005  ........... ....
 0140 aa000000 0df80000 00067900 00003cf0  ..........y...<.
 0150 0210003b 00000001 9c320100 000e7300  ...;.....2....s.
 0160 013c2132 01000010 0000000c 0000000f  .<!2............
 0170 1c031000 3e010000 00053701 00000101  ....>.....7.....
 0180 06560000 00063500 00001b00 021000e7  .V....5.........
 0190 00000001 9c800100 00106300 011b1f5c  ..........c....\
 01a0 00000002 910011ab 00000001 1c094000  ..............@.
 01b0 00001234 01000001 1c0e4000 00002200  ...4......@...".
 01c0 00002000 00000013 01010000 011106d0  .. .............
 01d0 01100021 00000001 9c076900 12094000  ...!......i...@.
 01e0 00002d00 00002b00 00000765 00140faa  ..-...+....e....
 01f0 00000038 00000034 00000000 00210000  ...8...4.....!..
 0200 00050001 04660100 00015c02 00002c03  .....f....\...,.
 0210 1000aa01 39010000 0c000000 1d000000  ....9...........
 0220 01805607 00000500 01047a01 00000db0  ..V.......z.....
 0230 0000000c 96000000 00000000 e0031000  ................
 0240 a8020000 ce020000 0601064f 00000006  ...........O....
 0250 02052301 00000604 051a0100 00060805  ..#.............
 0260 15010000 08880700 00022e18 4e000000  ............N...
 0270 0601084d 00000008 79040000 02311961  ...M....y....1.a
 0280 00000006 02075b00 00000853 04000002  ......[....S....
 0290 34197400 00000604 07990000 00060807  4.t.............
 02a0 94000000 0e040569 6e740006 04079e00  .......int......
 02b0 00000f08 030709d6 00000007 ce020000  ................
 02c0 080e5500 00000007 c4020000 090e5500  ..U...........U.
 02d0 00000207 80010000 0a0d4200 00000407  ..........B.....
 02e0 5d020000 0b0d4200 00000507 54020000  ].....B.....T...
 02f0 0c0e5500 00000600 08fa0100 00030d1b  ..U.............
 0300 90000000 029d0200 0028ee00 00000300  .........(......
 0310 02a00100 0027fa00 00000300 026f0300  .....'.......o..
 0320 00260601 00000300 02e20100 00251201  .&...........%..
 0330 00000300 02830200 00241e01 00000300  .........$......
 0340 023f0200 00232a01 00000300 02530100  .?...#*......S..
 0350 00223601 00000300 02520300 00214201  ."6......R...!B.
 0360 00000300 02a60300 00204e01 00000300  ......... N.....
 0370 02880300 001f5a01 00000300 02c40300  ......Z.........
 0380 001e6601 00000300 02060200 001d7201  ..f...........r.
 0390 00000300 02890100 001c7e01 00000300  ..........~.....
 03a0 02c30100 001b8a01 00000300 02d60200  ................
 03b0 001a9601 00000300 02190300 0019a201  ................
 03c0 00000300 022c0200 0018ae01 00000300  .....,..........
 03d0 026e0200 0017ba01 00000300 02680100  .n...........h..
 03e0 0016c601 00000300 02290300 0015d201  .........)......
 03f0 00000300 02ef0200 0014de01 00000300  ................
 0400 0ada0300 00165004 10003802 0000019c  ......P...8.....
 0410 8e060000 0b696474 00162f8e 06000002  .....idt../.....
 0420 91001069 00011809 82000000 16040307  ...i............
 0430 00006004 10000000 2c000000 1a3f0200  ..`.....,....?..
 0440 00012207 00005e00 00005c00 00000518  .."...^...\.....
 0450 07000001 10070000 6a000000 68000000  ........j...h...
 0460 00040307 00001106 10000200 3a000000  ............:...
 0470 26730200 00012207 00007500 00007300  &s...."...u...s.
 0480 00000518 07000001 10070000 81000000  ................
 0490 7f000000 00040307 00000605 10000200  ................
 04a0 48000000 1ba70200 00012207 00009000  H.........".....
 04b0 00008e00 00000518 07000001 10070000  ................
 04c0 9c000000 9a000000 00040307 00000d05  ................
 04d0 10000200 53000000 1cdb0200 00012207  ....S.........".
 04e0 0000ab00 0000a900 00000518 07000001  ................
 04f0 10070000 b7000000 b5000000 00040307  ................
 0500 00001405 10000200 5e000000 1d0f0300  ........^.......
 0510 00012207 0000c600 0000c400 00000518  ..".............
 0520 07000001 10070000 d2000000 d0000000  ................
 0530 00040307 00001b05 10000200 69000000  ............i...
 0540 1e430300 00012207 0000e100 0000df00  .C....".........
 0550 00000518 07000001 10070000 ed000000  ................
 0560 eb000000 00040307 00002205 10000200  ..........".....
 0570 74000000 1f770300 00012207 0000fc00  t....w....".....
 0580 0000fa00 00000518 07000001 10070000  ................
 0590 08010000 06010000 00040307 00002905  ..............).
 05a0 10000200 7f000000 20ab0300 00012207  ........ .....".
 05b0 00001701 00001501 00000518 07000001  ................
 05c0 10070000 23010000 21010000 00040307  ....#...!.......
 05d0 00003005 10000200 8a000000 21df0300  ..0.........!...
 05e0 00012207 00003201 00003001 00000518  .."...2...0.....
 05f0 07000001 10070000 3e010000 3c010000  ........>...<...
 0600 00040307 00003705 10000200 95000000  ......7.........
 0610 22130400 00012207 00004d01 00004b01  "....."...M...K.
 0620 00000518 07000001 10070000 59010000  ............Y...
 0630 57010000 00040307 00003e05 10000200  W.........>.....
 0640 a0000000 23470400 00012207 00006801  ....#G...."...h.
 0650 00006601 00000518 07000001 10070000  ..f.............
 0660 74010000 72010000 00040307 00004505  t...r.........E.
 0670 10000200 ab000000 247b0400 00012207  ........${....".
 0680 00008301 00008101 00000518 07000001  ................
 0690 10070000 8f010000 8d010000 00040307  ................
 06a0 00000a06 10000200 bb000000 25af0400  ............%...
 06b0 00012207 00009e01 00009c01 00000518  ..".............
 06c0 07000001 10070000 aa010000 a8010000  ................
 06d0 00040307 00001d06 10000200 c6000000  ................
 06e0 27e30400 00012207 0000b901 0000b701  '.....".........
 06f0 00000518 07000001 10070000 c5010000  ................
 0700 c3010000 00040307 00002406 10000200  ..........$.....
 0710 d1000000 28170500 00012207 0000d401  ....(.....".....
 0720 0000d201 00000518 07000001 10070000  ................
 0730 e0010000 de010000 00040307 00003906  ..............9.
 0740 10000200 dc000000 2a4b0500 00012207  ........*K....".
 0750 0000ef01 0000ed01 00000518 07000001  ................
 0760 10070000 fb010000 f9010000 00040307  ................
 0770 00004306 10000200 e7000000 2b7f0500  ..C.........+...
 0780 00012207 00000b02 00000902 00000518  ..".............
 0790 07000001 10070000 17020000 15020000  ................
 07a0 00040307 00004d06 10000200 f2000000  ......M.........
 07b0 2cb30500 00012207 00002702 00002502  ,....."...'...%.
 07c0 00000518 07000001 10070000 33020000  ............3...
 07d0 31020000 00040307 00005706 10000200  1.........W.....
 07e0 fd000000 2de70500 00012207 00004302  ....-....."...C.
 07f0 00004102 00000518 07000001 10070000  ..A.............
 0800 4f020000 4d020000 00040307 00006106  O...M.........a.
 0810 10000200 08010000 2e1b0600 00012207  ..............".
 0820 00005f02 00005d02 00000518 07000001  .._...].........
 0830 10070000 6b020000 69020000 00040307  ....k...i.......
 0840 00006b06 10000200 13010000 2f4f0600  ..k........./O..
 0850 00012207 00007b02 00007902 00000518  .."...{...y.....
 0860 07000001 10070000 87020000 85020000  ................
 0870 00110307 00002b06 10000200 2b061000  ......+.....+...
 0880 0e000000 01290501 22070000 97020000  .....)..".......
 0890 95020000 01180700 00970200 00950200  ................
 08a0 00011007 0000a202 0000a002 00000000  ................
 08b0 1204d600 00000a43 0300000d 10041000  .......C........
 08c0 36000000 019c0307 00000b69 6474000d  6..........idt..
 08d0 228e0600 00029100 13690001 0f098200  "........i......
 08e0 0000b102 0000af02 00001403 07000020  ............... 
 08f0 04100001 00250000 00011209 01220700  .....%......."..
 0900 00ba0200 00b80200 00011807 0000ba02  ................
 0910 0000b802 00000110 070000c5 020000c1  ................
 0920 02000000 00150603 00000104 06012f07  ............../.
 0930 00000c74 00268e06 00000c69 7372002f  ...t.&.....isr./
 0940 2f070000 16680200 0001043c 42000000  /....h.....<B...
 0950 00170418 03070000 e0031000 28000000  ............(...
 0960 019c0910 07000002 91000918 07000002  ................
 0970 91040922 07000002 91080000 fc050000  ..."............
 0980 05000104 f4020000 14b00000 000cb300  ................
 0990 00000000 00009006 10000301 0000ee06  ................
 09a0 00000304 051a0100 00030407 99000000  ................
 09b0 15040569 6e740003 01064f00 00000302  ...int....O.....
 09c0 05230100 00030805 15010000 02880700  .#..............
 09d0 00022e18 5c000000 0301084d 00000002  ....\......M....
 09e0 79040000 0231196f 00000003 02075b00  y....1.o......[.
 09f0 00000253 04000002 34192d00 00000308  ...S....4.-.....
 0a00 07940000 00030407 9e000000 027e0700  .............~..
 0a10 00035e21 5c000000 026f0400 00035f21  ..^!\....o...._!
 0a20 6f000000 02490400 00036021 89000000  o....I....`!....
 0a30 025c0400 00036121 82000000 063e0700  .\....a!.....>..
 0a40 00107d00 01000001 aa060000 037f16a8  ..}.............
 0a50 00000000 01de0400 00038016 a8000000  ................
 0a60 0401d907 00000381 16a80000 00080180  ................
 0a70 01000003 8216a800 00000c00 026f0600  .............o..
 0a80 0003842c c0000000 06170600 0010874b  ...,...........K
 0a90 0100000a 6e756d00 8916a800 00000001  ....num.........
 0aa0 c7060000 038a16a8 00000004 01d90700  ................
 0ab0 00038b16 a8000000 08011305 0000038c  ................
 0ac0 16a80000 000c0002 ee040000 038e330c  ..............3.
 0ad0 0100000b 10a37501 00000ccb 040000a5  ......u.........
 0ae0 23000100 000ca005 0000a62a 4b010000  #..........*K...
 0af0 00070803 cd059901 000001c5 07000003  ................
 0b00 cf1aa800 00000001 2c050000 03d01a9c  ........,.......
 0b10 00000004 00070603 d205f101 00000182  ................
 0b20 04000003 d4199000 00000001 b2060000  ................
 0b30 03d51990 00000001 01280400 0003d619  .........(......
 0b40 90000000 0201fe06 000003d7 19900000  ................
 0b50 000301e8 05000003 d8199000 00000401  ................
 0b60 fc030000 03d91990 00000005 000b08cb  ................
 0b70 03020000 0d750100 000d9901 00000006  .....u..........
 0b80 08060000 78907103 00000168 02000003  ....x.q....h....
 0b90 9316a800 00000001 a8050000 039616a8  ................
 0ba0 00000004 018d0600 00039716 a8000000  ................
 0bb0 08015405 0000039a 16a80000 000c01c3  ..T.............
 0bc0 04000003 9d16a800 00001001 73070000  ............s...
 0bd0 03a016a8 00000014 01d40400 0003a116  ................
 0be0 a8000000 180a7500 a7055701 00001c01  ......u...W.....
 0bf0 d6050000 03aa16a8 0000002c 01700500  ...........,.p..
 0c00 0003ab16 a8000000 3001e306 000003ae  ........0.......
 0c10 16a80000 003401b7 04000003 af16a800  .....4..........
 0c20 00003801 f1060000 03b216a8 0000003c  ..8............<
 0c30 01900700 0003b516 a8000000 40012205  ............@.".
 0c40 000003b8 16a80000 0044018f 05000003  .........D......
 0c50 bb16a800 00004801 9c060000 03bc16a8  ......H.........
 0c60 0000004c 01660600 0003bd16 9c000000  ...L.f..........
 0c70 5001a107 000003be 169c0000 005201b2  P............R..
 0c80 05000003 bf169c00 00005401 61070000  ..........T.a...
 0c90 03c0169c 00000056 01170400 0003c216  .......V........
 0ca0 b4000000 58014306 000003c3 16a80000  ....X.C.........
 0cb0 006001c4 05000003 c416a800 00006401  .`............d.
 0cc0 2b070000 03c516a8 00000068 01600500  +..........h.`..
 0cd0 0003c615 90000000 6c015506 000003ca  ........l.U.....
 0ce0 15900000 006d16f1 01000070 00021a07  .....m.....p....
 0cf0 000003dd 1f030200 00067a05 000018e6  ..........z.....
 0d00 d7030000 01c70600 0003e816 a8000000  ................
 0d10 00011905 000003e9 16a80000 000401a1  ................
 0d20 04000003 ea16a800 00000801 e6040000  ................
 0d30 03eb16a8 0000000c 014b0500 0003ec16  .........K......
 0d40 a8000000 10016106 000003f2 16a80000  ......a.........
 0d50 00140002 cc060000 03f4257d 03000007  ..........%}....
 0d60 08040709 2e040000 01ce0200 0004080e  ................
 0d70 63000000 0001c402 00000409 0e630000  c............c..
 0d80 00020180 01000004 0a0d5000 00000401  ..........P.....
 0d90 5d020000 040b0d50 00000005 01540200  ]......P.....T..
 0da0 00040c0e 63000000 060002fa 01000004  ....c...........
 0db0 0d1be303 00000706 040f095e 04000001  ...........^....
 0dc0 f6030000 04100e63 00000000 01c00700  .......c........
 0dd0 0004110e 76000000 0200025a 07000004  ....v......Z....
 0de0 121b3a04 00000e7a 0400007a 0400000f  ..:....z...z....
 0df0 2d000000 0500047f 04000003 01065600  -.............V.
 0e00 0000177f 04000018 3a060000 0113076a  ........:......j
 0e10 04000005 03082010 000e2e04 0000ad04  ...... .........
 0e20 00000f2d 000000ff 00196964 74000115  ...-......idt...
 0e30 339d0400 00100503 40701000 1a970600  3.......@p......
 0e40 0001170f 5e040000 05033070 10001bb9  ....^.....0p....
 0e50 07000005 06053400 0000e904 000008ee  ......4.........
 0e60 04000010 00048604 00001ce9 04000011  ................
 0e70 da030000 2c030500 00080305 00000004  ....,...........
 0e80 2e040000 11430300 002b1805 00000803  .....C...+......
 0e90 05000000 1d010100 00060906 26050000  ............&...
 0ea0 10001eab 04000001 19069006 10000301  ................
 0eb0 0000019c f5050000 12b30700 001b7600  ..............v.
 0ec0 0000e202 0000de02 00001208 06000034  ...............4
 0ed0 f5050000 fe020000 f2020000 0969001b  .............i..
 0ee0 12890000 00360300 002e0300 00096d6d  .....6........mm
 0ef0 6d00341d fa050000 55030000 53030000  m.4.....U...S...
 0f00 1f2a0100 00be0500 0020e205 00000137  .*....... .....7
 0f10 12760000 005d0300 005b0300 0009656e  .v...]...[....en
 0f20 64003812 76000000 69030000 65030000  d.8.v...i...e...
 0f30 05370710 00d20400 000005a4 06100018  .7..............
 0f40 05000005 b1061000 08050000 05bd0610  ................
 0f50 00f30400 0005fb06 1000d204 00001373  ...............s
 0f60 071000d2 04000013 93071000 d2040000  ................
 0f70 00047103 000004d7 03000000 f0030000  ..q.............
 0f80 05000104 ca040000 11b00000 000cf400  ................
 0f90 00000301 0000a007 1000ff02 00004508  ..............E.
 0fa0 00000924 08000002 281b3200 00001204  ...$....(.2.....
 0fb0 e5070000 3c000000 01010656 00000013  ....<......V....
 0fc0 3c000000 092b0800 00026318 26000000  <....+....c.&...
 0fd0 0101064f 00000001 02052301 00000104  ...O......#.....
 0fe0 051a0100 00010805 15010000 0101084d  ...............M
 0ff0 00000001 02075b00 00000953 04000003  ......[....S....
 1000 34198a00 00000104 07990000 00010807  4...............
 1010 94000000 14040569 6e740001 04079e00  .......int......
 1020 00000505 08000006 14b10000 000e4300  ..............C.
 1030 000015b1 00000005 75080000 0714b100  ........u.......
 1040 0000163e 00000004 05059800 0000dc00  ...>............
 1050 00001798 00000000 18b90700 00015105  ..............Q.
 1060 98000000 a0071000 ff020000 019c0703  ................
 1070 00001950 08000001 5122b600 00009c03  ...P....Q"......
 1080 00009403 00001a0f 3b080000 530d4800  ........;...S.H.
 1090 0000d503 0000b503 00000f33 08000056  ...........3...V
 10a0 09980000 00630400 00530400 001b4101  .....c...S....A.
 10b0 0000fd02 00000263 00611d98 0000001c  .......c.a......
 10c0 73000166 1f070300 00015302 64006a1d  s..f......S.d.j.
 10d0 98000000 0278006e 1d980000 00025800  .....x.n......X.
 10e0 721d9800 00000a99 0300004d 08100001  r..........M....
 10f0 4b010000 6fdf0100 000ba703 000010b1  K...o...........
 1100 0300004d 08100003 4b010000 2006c703  ...M....K... ...
 1110 0000a904 0000a504 000006be 030000ca  ................
 1120 040000c2 0400000c 4b010000 04d30300  ........K.......
 1130 00e90400 00e70400 0004dc03 0000fb04  ................
 1140 0000f304 00000de7 03000003 91b87f03  ................
 1150 a6081000 c6000000 0000000a 81030000  ................
 1160 ed091000 01560100 00735402 00000b8f  .....V...sT.....
 1170 03000010 b1030000 ed091000 03560100  .............V..
 1180 002506c7 03000020 0500001c 05000006  .%..... ........
 1190 be030000 41050000 39050000 0c560100  ....A...9....V..
 11a0 0004d303 00006005 00005e05 000004dc  ......`...^.....
 11b0 03000072 0500006a 0500000d e7030000  ...r...j........
 11c0 0391b87f 03460a10 00c60000 00000000  .....F..........
 11d0 1d5e0300 00cd0810 0001cd08 10002a00  .^............*.
 11e0 00000167 24890200 000b6c03 00000475  ...g$.....l....u
 11f0 03000097 05000093 05000003 ec081000  ................
 1200 c6000000 000a0c03 00001209 10000166  ...............f
 1210 0100006b ea020000 061a0300 00b10500  ...k............
 1220 00a70500 000c6601 00000423 030000d9  ......f....#....
 1230 050000d5 05000004 2c030000 fa050000  ........,.......
 1240 ec050000 0d370300 000391b8 7f1e4203  .....7........B.
 1250 00000392 091000c6 00000003 6d0a1000  ............m...
 1260 c6000000 00000319 081000c6 00000003  ................
 1270 c5091000 c6000000 0003dd07 1000c600  ................
 1280 0000000e 3c000000 08570800 00329800  ....<....W...2..
 1290 00004e03 00000764 00322598 00000002  ..N....d.2%.....
 12a0 69003409 98000000 026c656e 00340c98  i.4......len.4..
 12b0 00000005 de070000 36094e03 00000585  ........6.N.....
 12c0 08000038 09980000 00001f98 0000005e  ...8...........^
 12d0 03000020 8a000000 09000817 08000028  ... ...........(
 12e0 98000000 81030000 07730028 2cb10000  .........s.(,...
 12f0 00026c65 6e002a09 98000000 0008f707  ..len.*.........
 1300 00002398 00000099 03000007 58002325  ..#.........X.#%
 1310 98000000 00086508 00001e98 000000b1  ......e.........
 1320 03000007 78001e27 98000000 00214608  ....x..'.....!F.
 1330 00000109 13980000 00030778 0009267e  ...........x..&~
 1340 00000022 7d080000 010935b1 00000002  ..."}.....5.....
 1350 69000b09 98000000 026c656e 000b0c98  i........len....
 1360 00000005 de070000 0d094e03 00000000  ..........N.....
 1370 b5000000 05000104 aa060000 02b00000  ................
 1380 000c2101 00000301 0000a00a 10001a00  ..!.............
 1390 0000290b 00000101 064f0000 00010205  ..)......O......
 13a0 23010000 0104051a 01000001 08051501  #...............
 13b0 00000388 07000002 2e184e00 00000101  ..........N.....
 13c0 084d0000 00010207 5b000000 01040799  .M......[.......
 13d0 00000001 08079400 00000404 05696e74  .............int
 13e0 00010407 9e000000 05350000 00030a06  .........5......
 13f0 8a000000 06420000 0000073e 00000001  .....B.....>....
 1400 08056a00 0000a00a 10001a00 0000019c  ..j.............
 1410 08696300 0108116a 00000002 910009b3  .ic....j........
 1420 0a100078 00000000 001f0000 00050001  ...x............
 1430 04340700 0001970b 00008201 00008a08  .4..............
 1440 00000c00 00001d00 00000180           ............    
Contents of section .debug_abbrev:
 0000 01110010 17551703 0e1b0e25 0e130500  .....U.....%....
 0010 00000111 00101711 01120f03 0e1b0e25  ...............%
 0020 0e130500 00000124 000b0b3e 0b030e00  .......$...>....
 0030 00021600 030e3a0b 3b0b390b 49130000  ......:.;.9.I...
 0040 03340003 083a2101 3b0b3921 0849133f  .4...:!.;.9!.I.?
 0050 19021800 00043400 030e3a21 013b0b39  ......4...:!.;.9
 0060 0b49133f 19021800 00050f00 0b210449  .I.?.........!.I
 0070 13000006 2e013f19 030e3a21 013b0b39  ......?...:!.;.9
 0080 21062719 11011206 40187a19 01130000  !.'.....@.z.....
 0090 07340003 083a2101 3b0b390b 49130217  .4...:!.;.9.I...
 00a0 b7421700 00081101 250e130b 031f1b1f  .B......%.......
 00b0 11011206 10170000 0924000b 0b3e0b03  .........$...>..
 00c0 0800000a 1301030e 0b0b3a0b 3b0b390b  ..........:.;.9.
 00d0 01130000 0b0d0003 083a0b3b 0b390b49  .........:.;.9.I
 00e0 13380b00 000c0d00 030e3a0b 3b0b390b  .8........:.;.9.
 00f0 4913380b 00000d26 00491300 000e0500  I.8....&.I......
 0100 03083a0b 3b0b390b 49130217 b7421700  ..:.;.9.I....B..
 0110 000f4800 7d017f13 00001005 0003083a  ..H.}..........:
 0120 0b3b0b39 0b491302 18000011 3400030e  .;.9.I......4...
 0130 3a0b3b0b 390b4913 00001234 00030e3a  :.;.9.I....4...:
 0140 0b3b0b39 0b491302 17b74217 0000132e  .;.9.I....B.....
 0150 013f1903 0e3a0b3b 0b390b11 01120640  .?...:.;.9.....@
 0160 187a1900 00000111 00101711 01120f03  .z..............
 0170 0e1b0e25 0e130500 00000105 00311302  ...%.........1..
 0180 17b74217 0000022e 013f1903 0e3a2103  ..B......?...:!.
 0190 3b0b3921 063c1901 13000003 18000000  ;.9!.<..........
 01a0 041d0131 135201b8 42055517 58210159  ...1.R..B.U.X!.Y
 01b0 0b572105 01130000 05050031 13000006  .W!........1....
 01c0 24000b0b 3e0b030e 0000070d 00030e3a  $...>..........:
 01d0 21033b0b 390b4913 380b0000 08160003  !.;.9.I.8.......
 01e0 0e3a0b3b 0b390b49 13000009 05003113  .:.;.9.I......1.
 01f0 02180000 0a2e013f 19030e3a 21013b0b  .......?...:!.;.
 0200 39210627 19110112 0640187a 19011300  9!.'.....@.z....
 0210 000b0500 03083a21 013b0b39 0b491302  ......:!.;.9.I..
 0220 1800000c 05000308 3a21013b 2104390b  ........:!.;!.9.
 0230 49130000 0d110125 0e130b03 1f1b1f11  I......%........
 0240 01120610 1700000e 24000b0b 3e0b0308  ........$...>...
 0250 00000f13 010b0b3a 0b3b0b39 0b011300  .......:.;.9....
 0260 00103400 03083a0b 3b0b390b 49131c0b  ..4...:.;.9.I...
 0270 0000111d 01311352 01b84205 11011206  .....1.R..B.....
 0280 580b590b 570b0000 120f000b 0b491300  X.Y.W........I..
 0290 00133400 03083a0b 3b0b390b 49130217  ..4...:.;.9.I...
 02a0 b7421700 00141d01 31135201 b8420555  .B......1.R..B.U
 02b0 17580b59 0b570b00 00152e01 3f19030e  .X.Y.W......?...
 02c0 3a0b3b0b 390b2719 200b0113 00001605  :.;.9.'. .......
 02d0 00030e3a 0b3b0b39 0b491300 00170f00  ...:.;.9.I......
 02e0 0b0b0000 182e0131 13110112 0640187a  .......1.....@.z
 02f0 19000000 010d0003 0e3a0b3b 0b390b49  .........:.;.9.I
 0300 13380b00 00021600 030e3a0b 3b0b390b  .8........:.;.9.
 0310 49130000 0324000b 0b3e0b03 0e000004  I....$...>......
 0320 0f000b21 04491300 00054800 7d017f13  ...!.I....H.}...
 0330 00000613 01030e0b 0b3a2103 3b0b3921  .........:!.;.9!
 0340 08011300 00071301 0b0b3a0b 3b0b390b  ..........:.;.9.
 0350 01130000 08050049 13000009 34000308  .......I....4...
 0360 3a21013b 0b390b49 130217b7 42170000  :!.;.9.I....B...
 0370 0a0d0003 083a2103 3b0b390b 4913380b  .....:!.;.9.I.8.
 0380 00000b17 010b0b3a 21033b0b 39210301  .......:!.;.9!..
 0390 1300000c 0d00030e 3a21033b 0b390b49  ........:!.;.9.I
 03a0 1300000d 0d004913 00000e01 01491301  ......I......I..
 03b0 1300000f 21004913 2f0b0000 10180000  ....!.I./.......
 03c0 00112e01 3f19030e 3a21043b 0b392106  ....?...:!.;.9!.
 03d0 27193c19 01130000 12050003 0e3a2101  '.<..........:!.
 03e0 3b211939 0b491302 17b74217 00001348  ;!.9.I....B....H
 03f0 007d0182 01197f13 00001411 01250e13  .}...........%..
 0400 0b031f1b 1f110112 06101700 00152400  ..............$.
 0410 0b0b3e0b 03080000 160d0049 13380b00  ..>........I.8..
 0420 00172600 49130000 18340003 0e3a0b3b  ..&.I....4...:.;
 0430 0b390b49 133f1902 18000019 34000308  .9.I.?......4...
 0440 3a0b3b0b 390b4913 88010b02 1800001a  :.;.9.I.........
 0450 3400030e 3a0b3b0b 390b4913 02180000  4...:.;.9.I.....
 0460 1b2e013f 19030e3a 0b3b0b39 0b271949  ...?...:.;.9.'.I
 0470 133c1901 1300001c 37004913 00001d2e  .<......7.I.....
 0480 013f1903 0e3a0b3b 0b390b3c 19011300  .?...:.;.9.<....
 0490 001e2e01 3f19030e 3a0b3b0b 390b2719  ....?...:.;.9.'.
 04a0 11011206 40187a19 01130000 1f0b0155  ....@.z........U
 04b0 17011300 00203400 030e3a0b 3b0b390b  ..... 4...:.;.9.
 04c0 49130217 b7421700 00000124 000b0b3e  I....B.....$...>
 04d0 0b030e00 00023400 03083a21 013b0b39  ......4...:!.;.9
 04e0 0b491300 00034800 7d017f13 00000434  .I....H.}......4
 04f0 00311302 17b74217 00000534 00030e3a  .1....B....4...:
 0500 21013b0b 390b4913 00000605 00311302  !.;.9.I......1..
 0510 17b74217 00000705 0003083a 21013b0b  ..B........:!.;.
 0520 390b4913 0000082e 01030e3a 21013b0b  9.I........:!.;.
 0530 39211327 19491320 21030113 00000916  9!.'.I. !.......
 0540 00030e3a 0b3b0b39 0b491300 000a1d01  ...:.;.9.I......
 0550 31135201 b8420b55 17582101 590b5721  1.R..B.U.X!.Y.W!
 0560 24011300 000b0500 31130000 0c0b0155  $.......1......U
 0570 1700000d 34003113 02180000 0e0f000b  ....4.1.........
 0580 21044913 00000f34 00030e3a 21013b0b  !.I....4...:!.;.
 0590 390b4913 0217b742 17000010 1d013113  9.I....B......1.
 05a0 5201b842 0b551758 2101590b 57210c00  R..B.U.X!.Y.W!..
 05b0 00111101 250e130b 031f1b1f 11011206  ....%...........
 05c0 10170000 120f000b 0b030e49 13000013  ...........I....
 05d0 26004913 00001424 000b0b3e 0b030800  &.I....$...>....
 05e0 00153700 49130000 162e013f 19030e3a  ..7.I......?...:
 05f0 0b3b0b39 0b271949 133c1901 13000017  .;.9.'.I.<......
 0600 05004913 0000182e 013f1903 0e3a0b3b  ..I......?...:.;
 0610 0b390b27 19491311 01120640 187a1901  .9.'.I.....@.z..
 0620 13000019 0500030e 3a0b3b0b 390b4913  ........:.;.9.I.
 0630 0217b742 1700001a 18000000 1b0b0155  ...B...........U
 0640 17011300 001c3400 03083a0b 3b0b390b  ......4...:.;.9.
 0650 49130218 00001d1d 01311352 01b8420b  I........1.R..B.
 0660 11011206 580b590b 570b0113 00001e34  ....X.Y.W......4
 0670 00311300 001f0101 49130113 00002021  .1......I..... !
 0680 0049132f 0b000021 2e01030e 3a0b3b0b  .I./...!....:.;.
 0690 390b2719 4913200b 00002205 00030e3a  9.'.I. ..."....:
 06a0 0b3b0b39 0b491300 00000124 000b0b3e  .;.9.I.....$...>
 06b0 0b030e00 00021101 250e130b 031f1b1f  ........%.......
 06c0 11011206 10170000 03160003 0e3a0b3b  .............:.;
 06d0 0b390b49 13000004 24000b0b 3e0b0308  .9.I....$...>...
 06e0 0000052e 013f1903 0e3a0b3b 0b390b27  .....?...:.;.9.'
 06f0 193c1901 13000006 05004913 0000072e  .<........I.....
 0700 013f1903 0e3a0b3b 0b390b27 19491311  .?...:.;.9.'.I..
 0710 01120640 187a1900 00080500 03083a0b  ...@.z........:.
 0720 3b0b390b 49130218 00000948 007d017f  ;.9.I......H.}..
 0730 13000000 01110010 17551703 0e1b0e25  .........U.....%
 0740 0e130500 0000                        ......          
Contents of section .debug_aranges:
 0000 24000000 02000000 00000400 00000000  $...............
 0010 010b1000 03000000 100b1000 03000000  ................
 0020 00000000 00000000 1c000000 02002300  ..............#.
 0030 00000400 00000000 58011000 74000000  ........X...t...
 0040 00000000 00000000 1c000000 02004700  ..............G.
 0050 00000400 00000000 d0011000 5b010000  ............[...
 0060 00000000 00000000 1c000000 0200fd01  ................
 0070 00000400 00000000 2c031000 aa000000  ........,.......
 0080 00000000 00000000 1c000000 02002202  ..............".
 0090 00000400 00000000 e0031000 a8020000  ................
 00a0 00000000 00000000 1c000000 02007c09  ..............|.
 00b0 00000400 00000000 90061000 03010000  ................
 00c0 00000000 00000000 1c000000 02007c0f  ..............|.
 00d0 00000400 00000000 a0071000 ff020000  ................
 00e0 00000000 00000000 1c000000 02007013  ..............p.
 00f0 00000400 00000000 a00a1000 1a000000  ................
 0100 00000000 00000000 24000000 02002914  ........$.....).
 0110 00000400 00000000 0e0b1000 02000000  ................
 0120 180b1000 02000000 00000000 00000000  ................
Contents of section .debug_str:
 0000 69333836 2f637274 692e5300 2f6d6e74  i386/crti.S./mnt
 0010 2f686f73 742f6b65 726e656c 00474e55  /host/kernel.GNU
 0020 20415320 322e3338 00693338 362f626f   AS 2.38.i386/bo
 0030 6f742e53 00746572 6d696e61 6c5f7075  ot.S.terminal_pu
 0040 74636861 72007369 7a655f74 00756e73  tchar.size_t.uns
 0050 69676e65 64206368 61720073 686f7274  igned char.short
 0060 20756e73 69676e65 6420696e 74005f76   unsigned int._v
 0070 67615f65 6e747279 00746572 6d696e61  ga_entry.termina
 0080 6c5f7772 69746573 7472696e 6700636f  l_writestring.co
 0090 6c6f7200 6c6f6e67 206c6f6e 6720756e  lor.long long un
 00a0 7369676e 65642069 6e74005f 726f7700  signed int._row.
 00b0 474e5520 43393920 31312e32 2e30202d  GNU C99 11.2.0 -
 00c0 6d74756e 653d6765 6e657269 63202d6d  mtune=generic -m
 00d0 61726368 3d70656e 7469756d 70726f20  arch=pentiumpro 
 00e0 2d67202d 4f32202d 7374643d 676e7539  -g -O2 -std=gnu9
 00f0 39202d66 66726565 7374616e 64696e67  9 -ffreestanding
 0100 00746572 6d696e61 6c5f696e 69746961  .terminal_initia
 0110 6c697a65 006c6f6e 67206c6f 6e672069  lize.long long i
 0120 6e740073 686f7274 20696e74 00627566  nt.short int.buf
 0130 66657200 5f636f6c 00693338 362f6578  fer._col.i386/ex
 0140 63657074 696f6e5f 68616e64 6c657273  ception_handlers
 0150 2e530065 78636570 74696f6e 5f706167  .S.exception_pag
 0160 655f6661 756c7400 65786365 7074696f  e_fault.exceptio
 0170 6e5f6e6d 695f696e 74657272 75707400  n_nmi_interrupt.
 0180 72657365 72766564 00657863 65707469  reserved.excepti
 0190 6f6e5f64 6f75626c 655f6661 756c7400  on_double_fault.
 01a0 65786365 7074696f 6e5f7669 72747561  exception_virtua
 01b0 6c697a61 74696f6e 5f657863 65707469  lization_excepti
 01c0 6f6e0065 78636570 74696f6e 5f646576  on.exception_dev
 01d0 6963655f 6e6f745f 61766169 6c61626c  ice_not_availabl
 01e0 65006578 63657074 696f6e5f 6d616368  e.exception_mach
 01f0 696e655f 63686563 6b006964 745f656e  ine_check.idt_en
 0200 7472795f 74006578 63657074 696f6e5f  try_t.exception_
 0210 636f7072 6f636573 736f725f 7365676d  coprocessor_segm
 0220 656e745f 6f766572 72756e00 65786365  ent_overrun.exce
 0230 7074696f 6e5f6f76 6572666c 6f770065  ption_overflow.e
 0240 78636570 74696f6e 5f6d6174 685f6661  xception_math_fa
 0250 756c7400 6973725f 68696768 00617474  ult.isr_high.att
 0260 72696275 74657300 666c6167 73006578  ributes.flags.ex
 0270 63657074 696f6e5f 62726561 6b706f69  ception_breakpoi
 0280 6e740065 78636570 74696f6e 5f616c69  nt.exception_ali
 0290 676e6d65 6e745f63 6865636b 00657863  gnment_check.exc
 02a0 65707469 6f6e5f63 6f6e7472 6f6c5f70  eption_control_p
 02b0 726f7465 6374696f 6e5f6578 63657074  rotection_except
 02c0 696f6e00 6b65726e 656c5f63 73006973  ion.kernel_cs.is
 02d0 725f6c6f 77006578 63657074 696f6e5f  r_low.exception_
 02e0 696e7661 6c69645f 6f70636f 64650065  invalid_opcode.e
 02f0 78636570 74696f6e 5f646976 6964655f  xception_divide_
 0300 6572726f 72006964 745f7365 745f6465  error.idt_set_de
 0310 73637269 70746f72 00657863 65707469  scriptor.excepti
 0320 6f6e5f62 6f756e64 00657863 65707469  on_bound.excepti
 0330 6f6e5f64 65627567 5f657863 65707469  on_debug_excepti
 0340 6f6e0069 64745f69 6e697469 616c697a  on.idt_initializ
 0350 65006578 63657074 696f6e5f 67656e65  e.exception_gene
 0360 72616c5f 70726f74 65637469 6f6e0065  ral_protection.e
 0370 78636570 74696f6e 5f73696d 645f6578  xception_simd_ex
 0380 63657074 696f6e00 65786365 7074696f  ception.exceptio
 0390 6e5f7365 676d656e 745f6e6f 745f7072  n_segment_not_pr
 03a0 6573656e 74006578 63657074 696f6e5f  esent.exception_
 03b0 73746163 6b5f7365 676d656e 745f6661  stack_segment_fa
 03c0 756c7400 65786365 7074696f 6e5f696e  ult.exception_in
 03d0 76616c69 645f7473 73006964 745f696e  valid_tss.idt_in
 03e0 69745f65 78636570 74696f6e 5f68616e  it_exception_han
 03f0 646c6572 73006c69 6d697400 6672616d  dlers.limit.fram
 0400 65627566 6665725f 626c7565 5f6d6173  ebuffer_blue_mas
 0410 6b5f7369 7a650066 72616d65 62756666  k_size.framebuff
 0420 65725f61 64647200 6672616d 65627566  er_addr.framebuf
 0430 6665725f 67726565 6e5f6669 656c645f  fer_green_field_
 0440 706f7369 74696f6e 006d756c 7469626f  position.multibo
 0450 6f745f75 696e7433 325f7400 6d756c74  ot_uint32_t.mult
 0460 69626f6f 745f7569 6e743634 5f74006d  iboot_uint64_t.m
 0470 756c7469 626f6f74 5f75696e 7431365f  ultiboot_uint16_
 0480 74006672 616d6562 75666665 725f7265  t.framebuffer_re
 0490 645f6669 656c645f 706f7369 74696f6e  d_field_position
 04a0 00616464 725f6869 6768006b 65726e65  .addr_high.kerne
 04b0 6c5f6d61 696e0064 72697665 735f6164  l_main.drives_ad
 04c0 64720063 6d646c69 6e650061 6f75745f  dr.cmdline.aout_
 04d0 73796d00 6d6f6473 5f616464 72007374  sym.mods_addr.st
 04e0 7273697a 65006c65 6e5f6c6f 77006d75  rsize.len_low.mu
 04f0 6c746962 6f6f745f 656c665f 73656374  ltiboot_elf_sect
 0500 696f6e5f 68656164 65725f74 61626c65  ion_header_table
 0510 5f740073 686e6478 00616464 725f6c6f  _t.shndx.addr_lo
 0520 77006170 6d5f7461 626c6500 6672616d  w.apm_table.fram
 0530 65627566 6665725f 70616c65 7474655f  ebuffer_palette_
 0540 6e756d5f 636f6c6f 7273006c 656e5f68  num_colors.len_h
 0550 69676800 626f6f74 5f646576 69636500  igh.boot_device.
 0560 6672616d 65627566 6665725f 62707000  framebuffer_bpp.
 0570 6d6d6170 5f616464 72006d75 6c746962  mmap_addr.multib
 0580 6f6f745f 6d6d6170 5f656e74 72790076  oot_mmap_entry.v
 0590 62655f63 6f6e7472 6f6c5f69 6e666f00  be_control_info.
 05a0 656c665f 73656300 6d656d5f 6c6f7765  elf_sec.mem_lowe
 05b0 72007662 655f696e 74657266 6163655f  r.vbe_interface_
 05c0 6f666600 6672616d 65627566 6665725f  off.framebuffer_
 05d0 77696474 68006d6d 61705f6c 656e6774  width.mmap_lengt
 05e0 68007374 61727400 6672616d 65627566  h.start.framebuf
 05f0 6665725f 626c7565 5f666965 6c645f70  fer_blue_field_p
 0600 6f736974 696f6e00 6d756c74 69626f6f  osition.multiboo
 0610 745f696e 666f006d 756c7469 626f6f74  t_info.multiboot
 0620 5f656c66 5f736563 74696f6e 5f686561  _elf_section_hea
 0630 6465725f 7461626c 65006d65 6d747970  der_table.memtyp
 0640 65730066 72616d65 62756666 65725f70  es.framebuffer_p
 0650 69746368 00667261 6d656275 66666572  itch.framebuffer
 0660 5f747970 65007662 655f6d6f 6465006d  _type.vbe_mode.m
 0670 756c7469 626f6f74 5f616f75 745f7379  ultiboot_aout_sy
 0680 6d626f6c 5f746162 6c655f74 006d656d  mbol_table_t.mem
 0690 5f757070 65720069 64747200 7662655f  _upper.idtr.vbe_
 06a0 6d6f6465 5f696e66 6f007461 6273697a  mode_info.tabsiz
 06b0 65006672 616d6562 75666665 725f7265  e.framebuffer_re
 06c0 645f6d61 736b5f73 697a6500 6d756c74  d_mask_size.mult
 06d0 69626f6f 745f6d65 6d6f7279 5f6d6170  iboot_memory_map
 06e0 5f740064 72697665 735f6c65 6e677468  _t.drives_length
 06f0 00636f6e 6669675f 7461626c 65006672  .config_table.fr
 0700 616d6562 75666665 725f6772 65656e5f  amebuffer_green_
 0710 6d61736b 5f73697a 65006d75 6c746962  mask_size.multib
 0720 6f6f745f 696e666f 5f740066 72616d65  oot_info_t.frame
 0730 62756666 65725f68 65696768 74006d75  buffer_height.mu
 0740 6c746962 6f6f745f 616f7574 5f73796d  ltiboot_aout_sym
 0750 626f6c5f 7461626c 65006964 74725f74  bol_table.idtr_t
 0760 00766265 5f696e74 65726661 63655f6c  .vbe_interface_l
 0770 656e006d 6f64735f 636f756e 74006d75  en.mods_count.mu
 0780 6c746962 6f6f745f 75696e74 385f7400  ltiboot_uint8_t.
 0790 626f6f74 5f6c6f61 6465725f 6e616d65  boot_loader_name
 07a0 00766265 5f696e74 65726661 63655f73  .vbe_interface_s
 07b0 6567006d 61676963 00707269 6e746600  eg.magic.printf.
 07c0 62617365 00667261 6d656275 66666572  base.framebuffer
 07d0 5f70616c 65747465 5f616464 72006469  _palette_addr.di
 07e0 67697473 005f5f62 75696c74 696e5f76  gits.__builtin_v
 07f0 615f6c69 73740070 72696e74 5f686578  a_list.print_hex
 0800 5f626967 00736d61 6c6c5f68 65785f73  _big.small_hex_s
 0810 796d626f 6c730070 72696e74 5f737472  ymbols.print_str
 0820 696e6700 5f5f676e 75635f76 615f6c69  ing.__gnuc_va_li
 0830 73740077 72697474 656e0070 6172616d  st.written.param
 0840 65746572 73007072 696e745f 68657800  eters.print_hex.
 0850 666f726d 61740070 72696e74 5f646563  format.print_dec
 0860 696d616c 00707269 6e745f68 65785f73  imal.print_hex_s
 0870 6d616c6c 00626967 5f686578 5f73796d  mall.big_hex_sym
 0880 626f6c73 00736967 6e006933 38362f63  bols.sign.i386/c
 0890 72746e2e 5300                        rtn.S.          
Contents of section .debug_rnglists:
 0000 15000000 05000400 00000000 07010b10  ................
 0010 00030710 0b100003 00010100 00050004  ................
 0020 00000000 00044046 04496000 04717604  ......@F.I`..qv.
 0030 80018a01 049f02a6 02000476 7b048003  ...........v{...
 0040 900304b1 04bd0400 048a019a 0104a602  ................
 0050 ad020004 9a01aa01 04ad02b4 020004aa  ................
 0060 01ba0104 b402bb02 0004ba01 ca0104bb  ................
 0070 02c20200 04ca01da 0104c202 c9020004  ................
 0080 da01ea01 04c902d0 020004ea 01fa0104  ................
 0090 d002d702 0004fa01 8a0204d7 02de0200  ................
 00a0 048a029a 0204de02 e5020004 9a029f02  ................
 00b0 04e502f0 0204a304 aa040004 f0028003  ................
 00c0 04aa04b1 04000490 03a00304 bd04c404  ................
 00d0 0004a003 b00304c4 04cb0400 04b003c6  ................
 00e0 0304d904 e3040004 c603dc03 04e304ed  ................
 00f0 040004dc 03f20304 ed04f704 0004f203  ................
 0100 880404f7 04810500 0488049e 04048105  ................
 0110 8b050004 9e04a304 048b05a6 05001300  ................
 0120 00000500 04000000 00000480 01860104  ................
 0130 8c01a701 003d0000 00050004 00000000  .....=..........
 0140 00047080 0104a001 ff050004 ad018d02  ..p.............
 0150 04e705f3 0500048d 028d0204 cd04ad05  ................
 0160 04de05e7 050004f2 02f90304 c005de05  ................
 0170 04f305ff 05001500 00000500 04000000  ................
 0180 0000070e 0b100002 07180b10 000200    ............... 
Contents of section .comment:
 0000 4743433a 2028474e 55292031 312e322e  GCC: (GNU) 11.2.
 0010 3000                                 0.              
Contents of section .debug_loclists:
 0000 4c000000 05000400 00000000 00000000  L...............
 0010 04a002aa 02029100 04aa02d9 02015300  ..............S.
 0020 000004b0 01bc0102 309f0001 0004070c  ........0.......
 0030 02309f00 03000000 04000707 08209f93  .0........... ..
 0040 01930104 07210808 209f9301 52930100  .....!.. ...R...
 0050 7e020000 05000400 00000000 00000480  ~...............
 0060 01a60203 098f9f00 00000480 01a60202  ................
 0070 91000002 0004b104 bd040309 8f9f0002  ................
 0080 0004b104 bd040691 00062360 9f000200  ..........#`....
 0090 04a602ad 0203098f 9f000200 04a602ad  ................
 00a0 02069100 0623089f 00020004 ad02b402  .....#..........
 00b0 03098e9f 00020004 ad02b402 06910006  ................
 00c0 23109f00 020004b4 02bb0203 098f9f00  #...............
 00d0 020004b4 02bb0206 91000623 189f0002  ...........#....
 00e0 0004bb02 c2020309 8f9f0002 0004bb02  ................
 00f0 c2020691 00062320 9f000200 04c202c9  ......# ........
 0100 0203098f 9f000200 04c202c9 02069100  ................
 0110 0623289f 00020004 c902d002 03098f9f  .#(.............
 0120 00020004 c902d002 06910006 23309f00  ............#0..
 0130 020004d0 02d70203 098f9f00 020004d0  ................
 0140 02d70206 91000623 389f0002 0004d702  .......#8.......
 0150 de020309 8f9f0002 0004d702 de020691  ................
 0160 00062340 9f000200 04de02e5 0203098f  ..#@............
 0170 9f000200 04de02e5 02069100 0623489f  .............#H.
 0180 00020004 e502aa04 03098f9f 00020004  ................
 0190 e502aa04 06910006 23509f00 020004aa  ........#P......
 01a0 04b10403 098f9f00 020004aa 04b10406  ................
 01b0 91000623 589f0002 0004bd04 c4040309  ...#X...........
 01c0 8f9f0002 0004bd04 c4040691 00062368  ..............#h
 01d0 9f000200 04c404cb 0403098f 9f000200  ................
 01e0 04c404cb 04069100 0623709f 00020004  .........#p.....
 01f0 d904e304 03098f9f 00020004 d904e304  ................
 0200 07910006 2380019f 00020004 e304ed04  ....#...........
 0210 03098f9f 00020004 e304ed04 07910006  ................
 0220 2388019f 00020004 ed04f704 03098f9f  #...............
 0230 00020004 ed04f704 07910006 2390019f  ............#...
 0240 00020004 f7048105 03098f9f 00020004  ................
 0250 f7048105 07910006 2398019f 00020004  ........#.......
 0260 81058b05 03098f9f 00020004 81058b05  ................
 0270 07910006 23a0019f 00020004 8b05a605  ....#...........
 0280 03098f9f 00020004 8b05a605 07910006  ................
 0290 23a8019f 00020004 cb04d904 02309f00  #............0..
 02a0 020004cb 04d90406 91000623 789f0003  ...........#x...
 02b0 0004303c 02309f00 0100043c 6002309f  ..0<.0.....<`.0.
 02c0 00010000 00043c49 01500449 60037078  ......<I.P.I`.px
 02d0 9f00b200 00000500 04000000 00000000  ................
 02e0 00000400 d7010291 0004e301 f7010291  ................
 02f0 00000000 00000000 00000000 00000400  ................
 0300 c0010291 0404c001 c1010274 0804c101  ...........t....
 0310 de010291 0404de01 e3010274 0804e301  ...........t....
 0320 fe010291 0404fe01 83020274 08000100  ...........t....
 0330 00000002 02000475 7902309f 04798901  .......uy.0..y..
 0340 01570489 01a70103 777f9f04 a701b901  .W......w.......
 0350 01570000 00047579 01530000 00048601  .W....uy.S......
 0360 a6010152 00010000 00048601 8c010973  ...R...........s
 0370 0c067200 22311c9f 048c0193 01097374  ..r."1........st
 0380 06720022 311c9f00 a8020000 05000400  .r."1...........
 0390 00000000 00000000 00000000 04003702  ..............7.
 03a0 91000437 47029100 04474a01 50044aff  ...7G....GJ.P.J.
 03b0 05029100 00000000 00000000 00000000  ................
 03c0 00000000 00000000 00000000 00000000  ................
 03d0 00000000 00040f12 01500412 8e010391  .........P......
 03e0 a87f0499 01ad0103 91a87f04 ad01b801  ................
 03f0 015204b8 01ad0203 91a87f04 ad02ba02  .R..............
 0400 015104ba 02ed0203 91a87f04 ed02ef02  .Q..............
 0410 015304ef 02a00403 91a87f04 a004a404  .S..............
 0420 015204a4 04cd0403 91a87f04 cd04d804  .R..............
 0430 015104d8 04de0503 91a87f04 de05e705  .Q..............
 0440 015104e7 05ee0501 5204ee05 ff050391  .Q......R.......
 0450 a87f0001 00000000 00000000 00000000  ................
 0460 00000004 0f250230 9f042544 0391ac7f  .....%.0..%D....
 0470 04477d03 91ac7f04 80018e01 0391ac7f  .G}.............
 0480 04990190 020391ac 7f049502 da020391  ................
 0490 ac7f04df 02a90403 91ac7f04 b104ff05  ................
 04a0 0391ac7f 00030000 0004ad01 95020603  ................
 04b0 b2121000 9f04e705 f3050603 b2121000  ................
 04c0 9f000800 00000100 000004ad 01c70101  ................
 04d0 5004c701 cd010151 04d101e2 01015004  P......Q......P.
 04e0 e705f305 01500001 0004dd01 e2010372  .....P.........r
 04f0 019f0006 00000001 00000004 ad01b801  ................
 0500 02309f04 b801d901 015204d9 01e20103  .0.......R......
 0510 72019f04 e705f305 02309f00 03010000  r........0......
 0520 04cd04ad 050603c3 1210009f 04de05e7  ................
 0530 050603c3 1210009f 00080000 00010000  ................
 0540 0004cd04 e7040150 04e704ed 04015104  .......P......Q.
 0550 f1048205 015004de 05e70501 50000100  .....P......P...
 0560 04fd0482 05037201 9f000600 00000100  ......r.........
 0570 000004cd 04d80402 309f04d8 04f90401  ........0.......
 0580 5204f904 82050372 019f04de 05e70502  R......r........
 0590 309f0003 00000004 ad02ba02 02309f04  0............0..
 05a0 ba02df02 01560000 00000101 00000000  .....V..........
 05b0 0004f702 ad030153 04ad03b1 03015004  .......S......P.
 05c0 b103b903 015204b9 03bc0301 5304f305  .....R......S...
 05d0 ff050153 00010000 0004c303 d1030376  ...S...........v
 05e0 019f04b5 05de0503 76019f00 04000000  ........v.......
 05f0 01000001 00000000 000004f2 02820302  ................
 0600 309f0482 03bc0301 5604bc03 ce030376  0.......V......v
 0610 019f04ce 03f90303 91a47f04 b505d905  ................
 0620 0376019f 04d905de 05015004 f305ff05  .v........P.....
 0630 02309f00                             .0..            
Contents of section .debug_frame:
 0000 10000000 ffffffff 0100017c 080c0404  ...........|....
 0010 88010000 0c000000 00000000 d0011000  ................
 0020 21000000 38000000 00000000 00021000  !...8...........
 0030 e7000000 410e0885 02470d05 41870345  ....A....G..A..E
 0040 86048305 024c0ac3 41c641c7 41c50c04  .....L..A.A.A...
 0050 04410b02 85c341c6 41c741c5 0c040400  .A....A.A.A.....
 0060 20000000 00000000 f0021000 3b000000   ...........;...
 0070 410e0885 02420d05 44830373 c5c30c04  A....B..D..s....
 0080 04000000 10000000 ffffffff 0100017c  ...............|
 0090 080c0404 88010000 1c000000 84000000  ................
 00a0 e0031000 28000000 410e0885 02470d05  ....(...A....G..
 00b0 5fc50c04 04000000 1c000000 84000000  _...............
 00c0 10041000 36000000 410e0885 02420d05  ....6...A....B..
 00d0 72c50c04 04000000 1c000000 84000000  r...............
 00e0 50041000 38020000 410e0885 024c0d05  P...8...A....L..
 00f0 032a02c5 0c040400 10000000 ffffffff  .*..............
 0100 0100017c 080c0404 88010000 44000000  ...|........D...
 0110 f8000000 90061000 03010000 410e0885  ............A...
 0120 02420d05 46870386 04830502 b40ac341  .B..F..........A
 0130 c641c741 c50c0404 500b4b0a c341c641  .A.A....P.K..A.A
 0140 c741c50c 0404520b 4bc341c6 41c741c5  .A....R.K.A.A.A.
 0150 0c040400 10000000 ffffffff 0100017c  ...............|
 0160 080c0404 88010000 2c000000 54010000  ........,...T...
 0170 a0071000 ff020000 410e0885 02420d05  ........A....B..
 0180 49870386 04830502 890ac341 c641c741  I..........A.A.A
 0190 c50c0404 480b0000 10000000 ffffffff  ....H...........
 01a0 0100017c 080c0404 88010000 20000000  ...|........ ...
 01b0 98010000 a00a1000 1a000000 410e0885  ............A...
 01c0 02420d05 44830352 c5c30c04 04000000  .B..D..R........

Disassembly of section .text:

00100000 <deregister_tm_clones-0x10>:
  100000:	02 b0 ad 1b 03 00    	add    0x31bad(%eax),%dh
  100006:	00 00                	add    %al,(%eax)
  100008:	fb                   	sti    
  100009:	4f                   	dec    %edi
  10000a:	52                   	push   %edx
  10000b:	e4 66                	in     $0x66,%al
  10000d:	90                   	nop
  10000e:	66 90                	xchg   %ax,%ax

00100010 <deregister_tm_clones>:
  100010:	b8 30 20 10 00       	mov    $0x102030,%eax
  100015:	3d 30 20 10 00       	cmp    $0x102030,%eax
  10001a:	74 24                	je     100040 <deregister_tm_clones+0x30>
  10001c:	b8 00 00 00 00       	mov    $0x0,%eax
  100021:	85 c0                	test   %eax,%eax
  100023:	74 1b                	je     100040 <deregister_tm_clones+0x30>
  100025:	55                   	push   %ebp
  100026:	89 e5                	mov    %esp,%ebp
  100028:	83 ec 14             	sub    $0x14,%esp
  10002b:	68 30 20 10 00       	push   $0x102030
  100030:	ff d0                	call   *%eax
  100032:	83 c4 10             	add    $0x10,%esp
  100035:	c9                   	leave  
  100036:	c3                   	ret    
  100037:	8d b4 26 00 00 00 00 	lea    0x0(%esi,%eiz,1),%esi
  10003e:	66 90                	xchg   %ax,%ax
  100040:	c3                   	ret    
  100041:	8d b4 26 00 00 00 00 	lea    0x0(%esi,%eiz,1),%esi
  100048:	8d b4 26 00 00 00 00 	lea    0x0(%esi,%eiz,1),%esi
  10004f:	90                   	nop

00100050 <register_tm_clones>:
  100050:	b8 30 20 10 00       	mov    $0x102030,%eax
  100055:	2d 30 20 10 00       	sub    $0x102030,%eax
  10005a:	89 c2                	mov    %eax,%edx
  10005c:	c1 e8 1f             	shr    $0x1f,%eax
  10005f:	c1 fa 02             	sar    $0x2,%edx
  100062:	01 d0                	add    %edx,%eax
  100064:	d1 f8                	sar    %eax
  100066:	74 28                	je     100090 <register_tm_clones+0x40>
  100068:	ba 00 00 00 00       	mov    $0x0,%edx
  10006d:	85 d2                	test   %edx,%edx
  10006f:	74 1f                	je     100090 <register_tm_clones+0x40>
  100071:	55                   	push   %ebp
  100072:	89 e5                	mov    %esp,%ebp
  100074:	83 ec 10             	sub    $0x10,%esp
  100077:	50                   	push   %eax
  100078:	68 30 20 10 00       	push   $0x102030
  10007d:	ff d2                	call   *%edx
  10007f:	83 c4 10             	add    $0x10,%esp
  100082:	c9                   	leave  
  100083:	c3                   	ret    
  100084:	8d b4 26 00 00 00 00 	lea    0x0(%esi,%eiz,1),%esi
  10008b:	8d 74 26 00          	lea    0x0(%esi,%eiz,1),%esi
  10008f:	90                   	nop
  100090:	c3                   	ret    
  100091:	8d b4 26 00 00 00 00 	lea    0x0(%esi,%eiz,1),%esi
  100098:	8d b4 26 00 00 00 00 	lea    0x0(%esi,%eiz,1),%esi
  10009f:	90                   	nop

001000a0 <__do_global_dtors_aux>:
  1000a0:	80 3d 00 30 10 00 00 	cmpb   $0x0,0x103000
  1000a7:	75 67                	jne    100110 <__do_global_dtors_aux+0x70>
  1000a9:	55                   	push   %ebp
  1000aa:	a1 04 30 10 00       	mov    0x103004,%eax
  1000af:	89 e5                	mov    %esp,%ebp
  1000b1:	56                   	push   %esi
  1000b2:	be 28 20 10 00       	mov    $0x102028,%esi
  1000b7:	53                   	push   %ebx
  1000b8:	bb 2c 20 10 00       	mov    $0x10202c,%ebx
  1000bd:	81 eb 28 20 10 00    	sub    $0x102028,%ebx
  1000c3:	c1 fb 02             	sar    $0x2,%ebx
  1000c6:	83 eb 01             	sub    $0x1,%ebx
  1000c9:	39 d8                	cmp    %ebx,%eax
  1000cb:	73 17                	jae    1000e4 <__do_global_dtors_aux+0x44>
  1000cd:	8d 76 00             	lea    0x0(%esi),%esi
  1000d0:	83 c0 01             	add    $0x1,%eax
  1000d3:	a3 04 30 10 00       	mov    %eax,0x103004
  1000d8:	ff 14 86             	call   *(%esi,%eax,4)
  1000db:	a1 04 30 10 00       	mov    0x103004,%eax
  1000e0:	39 d8                	cmp    %ebx,%eax
  1000e2:	72 ec                	jb     1000d0 <__do_global_dtors_aux+0x30>
  1000e4:	e8 27 ff ff ff       	call   100010 <deregister_tm_clones>
  1000e9:	b8 00 00 00 00       	mov    $0x0,%eax
  1000ee:	85 c0                	test   %eax,%eax
  1000f0:	74 10                	je     100102 <__do_global_dtors_aux+0x62>
  1000f2:	83 ec 0c             	sub    $0xc,%esp
  1000f5:	68 0c 12 10 00       	push   $0x10120c
  1000fa:	e8 01 ff ef ff       	call   0 <ALIGN-0x1>
  1000ff:	83 c4 10             	add    $0x10,%esp
  100102:	c6 05 00 30 10 00 01 	movb   $0x1,0x103000
  100109:	8d 65 f8             	lea    -0x8(%ebp),%esp
  10010c:	5b                   	pop    %ebx
  10010d:	5e                   	pop    %esi
  10010e:	5d                   	pop    %ebp
  10010f:	c3                   	ret    
  100110:	c3                   	ret    
  100111:	8d b4 26 00 00 00 00 	lea    0x0(%esi,%eiz,1),%esi
  100118:	8d b4 26 00 00 00 00 	lea    0x0(%esi,%eiz,1),%esi
  10011f:	90                   	nop

00100120 <frame_dummy>:
  100120:	b8 00 00 00 00       	mov    $0x0,%eax
  100125:	85 c0                	test   %eax,%eax
  100127:	74 27                	je     100150 <frame_dummy+0x30>
  100129:	55                   	push   %ebp
  10012a:	89 e5                	mov    %esp,%ebp
  10012c:	83 ec 10             	sub    $0x10,%esp
  10012f:	68 08 30 10 00       	push   $0x103008
  100134:	68 0c 12 10 00       	push   $0x10120c
  100139:	e8 c2 fe ef ff       	call   0 <ALIGN-0x1>
  10013e:	83 c4 10             	add    $0x10,%esp
  100141:	c9                   	leave  
  100142:	e9 09 ff ff ff       	jmp    100050 <register_tm_clones>
  100147:	8d b4 26 00 00 00 00 	lea    0x0(%esi,%eiz,1),%esi
  10014e:	66 90                	xchg   %ax,%ax
  100150:	e9 fb fe ff ff       	jmp    100050 <register_tm_clones>
  100155:	66 90                	xchg   %ax,%ax
  100157:	90                   	nop

00100158 <_start>:
  100158:	0f 01 15 18 10 10 00 	lgdtl  0x101018
  10015f:	ea 66 01 10 00 08 00 	ljmp   $0x8,$0x100166

00100166 <_reload_segment_registers>:
  100166:	66 b9 10 00          	mov    $0x10,%cx
  10016a:	8e d9                	mov    %ecx,%ds
  10016c:	8e c1                	mov    %ecx,%es
  10016e:	8e e1                	mov    %ecx,%fs
  100170:	8e e9                	mov    %ecx,%gs
  100172:	8e d1                	mov    %ecx,%ss
  100174:	bc 20 70 10 00       	mov    $0x107020,%esp
  100179:	53                   	push   %ebx
  10017a:	50                   	push   %eax
  10017b:	fc                   	cld    
  10017c:	e8 80 09 00 00       	call   100b01 <_init>
  100181:	e8 0a 05 00 00       	call   100690 <kernel_main>

00100186 <sleep>:
  100186:	f4                   	hlt    
  100187:	eb fd                	jmp    100186 <sleep>
  100189:	8d 76 00             	lea    0x0(%esi),%esi

0010018c <outb>:
  10018c:	8b 44 24 08          	mov    0x8(%esp),%eax
  100190:	8b 54 24 04          	mov    0x4(%esp),%edx
  100194:	ee                   	out    %al,(%dx)
  100195:	c3                   	ret    
  100196:	66 90                	xchg   %ax,%ax

00100198 <outh>:
  100198:	8b 44 24 08          	mov    0x8(%esp),%eax
  10019c:	8b 54 24 04          	mov    0x4(%esp),%edx
  1001a0:	66 ef                	out    %ax,(%dx)
  1001a2:	c3                   	ret    
  1001a3:	90                   	nop

001001a4 <out>:
  1001a4:	8b 44 24 08          	mov    0x8(%esp),%eax
  1001a8:	8b 54 24 04          	mov    0x4(%esp),%edx
  1001ac:	ef                   	out    %eax,(%dx)
  1001ad:	c3                   	ret    
  1001ae:	66 90                	xchg   %ax,%ax

001001b0 <inb>:
  1001b0:	8b 54 24 04          	mov    0x4(%esp),%edx
  1001b4:	31 c0                	xor    %eax,%eax
  1001b6:	ec                   	in     (%dx),%al
  1001b7:	c3                   	ret    

001001b8 <inh>:
  1001b8:	8b 54 24 04          	mov    0x4(%esp),%edx
  1001bc:	31 c0                	xor    %eax,%eax
  1001be:	66 ed                	in     (%dx),%ax
  1001c0:	c3                   	ret    
  1001c1:	8d 76 00             	lea    0x0(%esi),%esi

001001c4 <in>:
  1001c4:	8b 54 24 04          	mov    0x4(%esp),%edx
  1001c8:	31 c0                	xor    %eax,%eax
  1001ca:	ed                   	in     (%dx),%eax
  1001cb:	c3                   	ret    
  1001cc:	66 90                	xchg   %ax,%ax
  1001ce:	66 90                	xchg   %ax,%ax

001001d0 <terminal_initialize>:
  1001d0:	0f b6 15 04 20 10 00 	movzbl 0x102004,%edx
  1001d7:	b8 00 80 0b 00       	mov    $0xb8000,%eax
  1001dc:	8d 74 26 00          	lea    0x0(%esi,%eiz,1),%esi
  1001e0:	c6 00 20             	movb   $0x20,(%eax)
  1001e3:	83 c0 02             	add    $0x2,%eax
  1001e6:	88 50 ff             	mov    %dl,-0x1(%eax)
  1001e9:	3d a0 8f 0b 00       	cmp    $0xb8fa0,%eax
  1001ee:	75 f0                	jne    1001e0 <terminal_initialize+0x10>
  1001f0:	c3                   	ret    
  1001f1:	8d b4 26 00 00 00 00 	lea    0x0(%esi,%eiz,1),%esi
  1001f8:	8d b4 26 00 00 00 00 	lea    0x0(%esi,%eiz,1),%esi
  1001ff:	90                   	nop

00100200 <terminal_putchar>:
  100200:	55                   	push   %ebp
  100201:	a1 24 70 10 00       	mov    0x107024,%eax
  100206:	89 e5                	mov    %esp,%ebp
  100208:	57                   	push   %edi
  100209:	8b 7d 08             	mov    0x8(%ebp),%edi
  10020c:	56                   	push   %esi
  10020d:	53                   	push   %ebx
  10020e:	89 fb                	mov    %edi,%ebx
  100210:	80 fb 0a             	cmp    $0xa,%bl
  100213:	74 2d                	je     100242 <terminal_putchar+0x42>
  100215:	8b 0d 20 70 10 00    	mov    0x107020,%ecx
  10021b:	8d 14 80             	lea    (%eax,%eax,4),%edx
  10021e:	0f b6 1d 04 20 10 00 	movzbl 0x102004,%ebx
  100225:	c1 e2 04             	shl    $0x4,%edx
  100228:	01 ca                	add    %ecx,%edx
  10022a:	01 d2                	add    %edx,%edx
  10022c:	88 9a 01 80 0b 00    	mov    %bl,0xb8001(%edx)
  100232:	89 fb                	mov    %edi,%ebx
  100234:	88 9a 00 80 0b 00    	mov    %bl,0xb8000(%edx)
  10023a:	8d 51 01             	lea    0x1(%ecx),%edx
  10023d:	83 f9 4f             	cmp    $0x4f,%ecx
  100240:	75 1c                	jne    10025e <terminal_putchar+0x5e>
  100242:	c7 05 20 70 10 00 00 	movl   $0x0,0x107020
  100249:	00 00 00 
  10024c:	83 c0 01             	add    $0x1,%eax
  10024f:	a3 24 70 10 00       	mov    %eax,0x107024
  100254:	83 f8 19             	cmp    $0x19,%eax
  100257:	74 10                	je     100269 <terminal_putchar+0x69>
  100259:	5b                   	pop    %ebx
  10025a:	5e                   	pop    %esi
  10025b:	5f                   	pop    %edi
  10025c:	5d                   	pop    %ebp
  10025d:	c3                   	ret    
  10025e:	89 15 20 70 10 00    	mov    %edx,0x107020
  100264:	83 f8 19             	cmp    $0x19,%eax
  100267:	75 f0                	jne    100259 <terminal_putchar+0x59>
  100269:	bb 40 81 0b 00       	mov    $0xb8140,%ebx
  10026e:	31 ff                	xor    %edi,%edi
  100270:	be 50 00 00 00       	mov    $0x50,%esi
  100275:	8d b4 26 00 00 00 00 	lea    0x0(%esi,%eiz,1),%esi
  10027c:	8d 74 26 00          	lea    0x0(%esi,%eiz,1),%esi
  100280:	89 f9                	mov    %edi,%ecx
  100282:	8d 83 60 ff ff ff    	lea    -0xa0(%ebx),%eax
  100288:	29 f1                	sub    %esi,%ecx
  10028a:	01 c9                	add    %ecx,%ecx
  10028c:	8d 74 26 00          	lea    0x0(%esi,%eiz,1),%esi
  100290:	0f b7 10             	movzwl (%eax),%edx
  100293:	66 89 14 01          	mov    %dx,(%ecx,%eax,1)
  100297:	83 c0 02             	add    $0x2,%eax
  10029a:	39 d8                	cmp    %ebx,%eax
  10029c:	75 f2                	jne    100290 <terminal_putchar+0x90>
  10029e:	83 c6 50             	add    $0x50,%esi
  1002a1:	83 c7 50             	add    $0x50,%edi
  1002a4:	8d 98 a0 00 00 00    	lea    0xa0(%eax),%ebx
  1002aa:	81 fe d0 07 00 00    	cmp    $0x7d0,%esi
  1002b0:	75 ce                	jne    100280 <terminal_putchar+0x80>
  1002b2:	b8 00 8f 0b 00       	mov    $0xb8f00,%eax
  1002b7:	8d b4 26 00 00 00 00 	lea    0x0(%esi,%eiz,1),%esi
  1002be:	66 90                	xchg   %ax,%ax
  1002c0:	0f b6 15 04 20 10 00 	movzbl 0x102004,%edx
  1002c7:	83 c0 02             	add    $0x2,%eax
  1002ca:	c6 40 fe 20          	movb   $0x20,-0x2(%eax)
  1002ce:	88 50 ff             	mov    %dl,-0x1(%eax)
  1002d1:	3d a0 8f 0b 00       	cmp    $0xb8fa0,%eax
  1002d6:	75 e8                	jne    1002c0 <terminal_putchar+0xc0>
  1002d8:	c7 05 24 70 10 00 18 	movl   $0x18,0x107024
  1002df:	00 00 00 
  1002e2:	5b                   	pop    %ebx
  1002e3:	5e                   	pop    %esi
  1002e4:	5f                   	pop    %edi
  1002e5:	5d                   	pop    %ebp
  1002e6:	c3                   	ret    
  1002e7:	8d b4 26 00 00 00 00 	lea    0x0(%esi,%eiz,1),%esi
  1002ee:	66 90                	xchg   %ax,%ax

001002f0 <terminal_writestring>:
  1002f0:	55                   	push   %ebp
  1002f1:	89 e5                	mov    %esp,%ebp
  1002f3:	53                   	push   %ebx
  1002f4:	83 ec 04             	sub    $0x4,%esp
  1002f7:	8b 5d 08             	mov    0x8(%ebp),%ebx
  1002fa:	0f b6 03             	movzbl (%ebx),%eax
  1002fd:	84 c0                	test   %al,%al
  1002ff:	74 25                	je     100326 <terminal_writestring+0x36>
  100301:	8d b4 26 00 00 00 00 	lea    0x0(%esi,%eiz,1),%esi
  100308:	8d b4 26 00 00 00 00 	lea    0x0(%esi,%eiz,1),%esi
  10030f:	90                   	nop
  100310:	83 ec 0c             	sub    $0xc,%esp
  100313:	83 c3 01             	add    $0x1,%ebx
  100316:	50                   	push   %eax
  100317:	e8 e4 fe ff ff       	call   100200 <terminal_putchar>
  10031c:	0f b6 03             	movzbl (%ebx),%eax
  10031f:	83 c4 10             	add    $0x10,%esp
  100322:	84 c0                	test   %al,%al
  100324:	75 ea                	jne    100310 <terminal_writestring+0x20>
  100326:	8b 5d fc             	mov    -0x4(%ebp),%ebx
  100329:	c9                   	leave  
  10032a:	c3                   	ret    
  10032b:	90                   	nop

0010032c <exception_divide_error>:
  10032c:	68 24 10 10 00       	push   $0x101024
  100331:	e9 99 00 00 00       	jmp    1003cf <halt_forever>
  100336:	66 90                	xchg   %ax,%ax

00100338 <exception_debug_exception>:
  100338:	cf                   	iret   
  100339:	8d 76 00             	lea    0x0(%esi),%esi

0010033c <exception_nmi_interrupt>:
  10033c:	68 41 10 10 00       	push   $0x101041
  100341:	e9 89 00 00 00       	jmp    1003cf <halt_forever>
  100346:	66 90                	xchg   %ax,%ax

00100348 <exception_breakpoint>:
  100348:	cf                   	iret   
  100349:	8d 76 00             	lea    0x0(%esi),%esi

0010034c <exception_overflow>:
  10034c:	cf                   	iret   
  10034d:	8d 76 00             	lea    0x0(%esi),%esi

00100350 <exception_bound>:
  100350:	68 63 10 10 00       	push   $0x101063
  100355:	eb 78                	jmp    1003cf <halt_forever>
  100357:	90                   	nop

00100358 <exception_invalid_opcode>:
  100358:	68 78 10 10 00       	push   $0x101078
  10035d:	eb 70                	jmp    1003cf <halt_forever>
  10035f:	90                   	nop

00100360 <exception_device_not_available>:
  100360:	68 87 10 10 00       	push   $0x101087
  100365:	eb 68                	jmp    1003cf <halt_forever>
  100367:	90                   	nop

00100368 <exception_double_fault>:
  100368:	68 68 03 10 00       	push   $0x100368
  10036d:	eb 60                	jmp    1003cf <halt_forever>
  10036f:	90                   	nop

00100370 <exception_coprocessor_segment_overrun>:
  100370:	68 a9 10 10 00       	push   $0x1010a9
  100375:	eb 58                	jmp    1003cf <halt_forever>
  100377:	90                   	nop

00100378 <exception_invalid_tss>:
  100378:	68 c5 10 10 00       	push   $0x1010c5
  10037d:	eb 50                	jmp    1003cf <halt_forever>
  10037f:	90                   	nop

00100380 <exception_segment_not_present>:
  100380:	68 d1 10 10 00       	push   $0x1010d1
  100385:	eb 48                	jmp    1003cf <halt_forever>
  100387:	90                   	nop

00100388 <exception_stack_segment_fault>:
  100388:	68 e5 10 10 00       	push   $0x1010e5
  10038d:	eb 40                	jmp    1003cf <halt_forever>
  10038f:	90                   	nop

00100390 <exception_general_protection>:
  100390:	68 f9 10 10 00       	push   $0x1010f9
  100395:	eb 38                	jmp    1003cf <halt_forever>
  100397:	90                   	nop

00100398 <exception_page_fault>:
  100398:	68 0c 11 10 00       	push   $0x10110c
  10039d:	eb 30                	jmp    1003cf <halt_forever>
  10039f:	90                   	nop

001003a0 <exception_math_fault>:
  1003a0:	68 17 11 10 00       	push   $0x101117
  1003a5:	eb 28                	jmp    1003cf <halt_forever>
  1003a7:	90                   	nop

001003a8 <exception_alignment_check>:
  1003a8:	68 22 11 10 00       	push   $0x101122
  1003ad:	eb 20                	jmp    1003cf <halt_forever>
  1003af:	90                   	nop

001003b0 <exception_machine_check>:
  1003b0:	68 32 11 10 00       	push   $0x101132
  1003b5:	eb 18                	jmp    1003cf <halt_forever>
  1003b7:	90                   	nop

001003b8 <exception_simd_exception>:
  1003b8:	68 40 11 10 00       	push   $0x101140
  1003bd:	eb 10                	jmp    1003cf <halt_forever>
  1003bf:	90                   	nop

001003c0 <exception_virtualization_exception>:
  1003c0:	68 4f 11 10 00       	push   $0x10114f
  1003c5:	eb 08                	jmp    1003cf <halt_forever>
  1003c7:	90                   	nop

001003c8 <exception_control_protection_exception>:
  1003c8:	68 68 11 10 00       	push   $0x101168
  1003cd:	eb 00                	jmp    1003cf <halt_forever>

001003cf <halt_forever>:
  1003cf:	e8 1c ff ff ff       	call   1002f0 <terminal_writestring>

001003d4 <null_exception_handler>:
  1003d4:	fa                   	cli    
  1003d5:	f4                   	hlt    
  1003d6:	66 90                	xchg   %ax,%ax
  1003d8:	66 90                	xchg   %ax,%ax
  1003da:	66 90                	xchg   %ax,%ax
  1003dc:	66 90                	xchg   %ax,%ax
  1003de:	66 90                	xchg   %ax,%ax

001003e0 <idt_set_descriptor>:
  1003e0:	55                   	push   %ebp
  1003e1:	b9 08 00 00 00       	mov    $0x8,%ecx
  1003e6:	89 e5                	mov    %esp,%ebp
  1003e8:	8b 45 08             	mov    0x8(%ebp),%eax
  1003eb:	8b 55 0c             	mov    0xc(%ebp),%edx
  1003ee:	66 89 48 02          	mov    %cx,0x2(%eax)
  1003f2:	66 89 10             	mov    %dx,(%eax)
  1003f5:	8b 4d 10             	mov    0x10(%ebp),%ecx
  1003f8:	c1 ea 10             	shr    $0x10,%edx
  1003fb:	66 89 50 06          	mov    %dx,0x6(%eax)
  1003ff:	88 48 05             	mov    %cl,0x5(%eax)
  100402:	c6 40 04 00          	movb   $0x0,0x4(%eax)
  100406:	5d                   	pop    %ebp
  100407:	c3                   	ret    
  100408:	8d b4 26 00 00 00 00 	lea    0x0(%esi,%eiz,1),%esi
  10040f:	90                   	nop

00100410 <idt_initialize>:
  100410:	55                   	push   %ebp
  100411:	89 e5                	mov    %esp,%ebp
  100413:	8b 45 08             	mov    0x8(%ebp),%eax
  100416:	8d 90 00 08 00 00    	lea    0x800(%eax),%edx
  10041c:	8d 74 26 00          	lea    0x0(%esi,%eiz,1),%esi
  100420:	31 c9                	xor    %ecx,%ecx
  100422:	c6 40 05 00          	movb   $0x0,0x5(%eax)
  100426:	83 c0 08             	add    $0x8,%eax
  100429:	66 89 48 f8          	mov    %cx,-0x8(%eax)
  10042d:	b9 08 00 00 00       	mov    $0x8,%ecx
  100432:	66 89 48 fa          	mov    %cx,-0x6(%eax)
  100436:	31 c9                	xor    %ecx,%ecx
  100438:	66 89 48 fe          	mov    %cx,-0x2(%eax)
  10043c:	c6 40 fc 00          	movb   $0x0,-0x4(%eax)
  100440:	39 d0                	cmp    %edx,%eax
  100442:	75 dc                	jne    100420 <idt_initialize+0x10>
  100444:	5d                   	pop    %ebp
  100445:	c3                   	ret    
  100446:	8d b4 26 00 00 00 00 	lea    0x0(%esi,%eiz,1),%esi
  10044d:	8d 76 00             	lea    0x0(%esi),%esi

00100450 <idt_init_exception_handlers>:
  100450:	55                   	push   %ebp
  100451:	ba 2c 03 10 00       	mov    $0x10032c,%edx
  100456:	b9 08 00 00 00       	mov    $0x8,%ecx
  10045b:	89 e5                	mov    %esp,%ebp
  10045d:	8b 45 08             	mov    0x8(%ebp),%eax
  100460:	66 89 10             	mov    %dx,(%eax)
  100463:	c1 ea 10             	shr    $0x10,%edx
  100466:	66 89 50 06          	mov    %dx,0x6(%eax)
  10046a:	ba 38 03 10 00       	mov    $0x100338,%edx
  10046f:	66 89 50 08          	mov    %dx,0x8(%eax)
  100473:	c1 ea 10             	shr    $0x10,%edx
  100476:	66 89 50 0e          	mov    %dx,0xe(%eax)
  10047a:	ba 3c 03 10 00       	mov    $0x10033c,%edx
  10047f:	66 89 50 10          	mov    %dx,0x10(%eax)
  100483:	c1 ea 10             	shr    $0x10,%edx
  100486:	66 89 50 16          	mov    %dx,0x16(%eax)
  10048a:	ba 48 03 10 00       	mov    $0x100348,%edx
  10048f:	66 89 50 18          	mov    %dx,0x18(%eax)
  100493:	c1 ea 10             	shr    $0x10,%edx
  100496:	66 89 50 1e          	mov    %dx,0x1e(%eax)
  10049a:	ba 4c 03 10 00       	mov    $0x10034c,%edx
  10049f:	66 89 50 20          	mov    %dx,0x20(%eax)
  1004a3:	c1 ea 10             	shr    $0x10,%edx
  1004a6:	66 89 50 26          	mov    %dx,0x26(%eax)
  1004aa:	ba 50 03 10 00       	mov    $0x100350,%edx
  1004af:	66 89 50 28          	mov    %dx,0x28(%eax)
  1004b3:	c1 ea 10             	shr    $0x10,%edx
  1004b6:	66 89 50 2e          	mov    %dx,0x2e(%eax)
  1004ba:	ba 58 03 10 00       	mov    $0x100358,%edx
  1004bf:	66 89 50 30          	mov    %dx,0x30(%eax)
  1004c3:	c1 ea 10             	shr    $0x10,%edx
  1004c6:	66 89 50 36          	mov    %dx,0x36(%eax)
  1004ca:	ba 60 03 10 00       	mov    $0x100360,%edx
  1004cf:	66 89 50 38          	mov    %dx,0x38(%eax)
  1004d3:	c1 ea 10             	shr    $0x10,%edx
  1004d6:	66 89 50 3e          	mov    %dx,0x3e(%eax)
  1004da:	ba 68 03 10 00       	mov    $0x100368,%edx
  1004df:	66 89 50 40          	mov    %dx,0x40(%eax)
  1004e3:	c1 ea 10             	shr    $0x10,%edx
  1004e6:	66 89 50 46          	mov    %dx,0x46(%eax)
  1004ea:	ba 70 03 10 00       	mov    $0x100370,%edx
  1004ef:	66 89 50 48          	mov    %dx,0x48(%eax)
  1004f3:	c1 ea 10             	shr    $0x10,%edx
  1004f6:	66 89 50 4e          	mov    %dx,0x4e(%eax)
  1004fa:	ba 78 03 10 00       	mov    $0x100378,%edx
  1004ff:	c7 40 02 08 00 00 8f 	movl   $0x8f000008,0x2(%eax)
  100506:	c7 40 0a 08 00 00 8f 	movl   $0x8f000008,0xa(%eax)
  10050d:	c7 40 12 08 00 00 8e 	movl   $0x8e000008,0x12(%eax)
  100514:	c7 40 1a 08 00 00 8f 	movl   $0x8f000008,0x1a(%eax)
  10051b:	c7 40 22 08 00 00 8f 	movl   $0x8f000008,0x22(%eax)
  100522:	c7 40 2a 08 00 00 8f 	movl   $0x8f000008,0x2a(%eax)
  100529:	c7 40 32 08 00 00 8f 	movl   $0x8f000008,0x32(%eax)
  100530:	c7 40 3a 08 00 00 8f 	movl   $0x8f000008,0x3a(%eax)
  100537:	c7 40 42 08 00 00 8f 	movl   $0x8f000008,0x42(%eax)
  10053e:	c7 40 4a 08 00 00 8f 	movl   $0x8f000008,0x4a(%eax)
  100545:	66 89 50 50          	mov    %dx,0x50(%eax)
  100549:	c1 ea 10             	shr    $0x10,%edx
  10054c:	66 89 50 56          	mov    %dx,0x56(%eax)
  100550:	ba 80 03 10 00       	mov    $0x100380,%edx
  100555:	66 89 50 58          	mov    %dx,0x58(%eax)
  100559:	c1 ea 10             	shr    $0x10,%edx
  10055c:	66 89 50 5e          	mov    %dx,0x5e(%eax)
  100560:	ba 88 03 10 00       	mov    $0x100388,%edx
  100565:	66 89 50 60          	mov    %dx,0x60(%eax)
  100569:	c1 ea 10             	shr    $0x10,%edx
  10056c:	66 89 50 66          	mov    %dx,0x66(%eax)
  100570:	ba 90 03 10 00       	mov    $0x100390,%edx
  100575:	66 89 50 68          	mov    %dx,0x68(%eax)
  100579:	c1 ea 10             	shr    $0x10,%edx
  10057c:	66 89 50 6e          	mov    %dx,0x6e(%eax)
  100580:	ba 98 03 10 00       	mov    $0x100398,%edx
  100585:	66 89 50 70          	mov    %dx,0x70(%eax)
  100589:	c1 ea 10             	shr    $0x10,%edx
  10058c:	66 89 50 76          	mov    %dx,0x76(%eax)
  100590:	ba a0 03 10 00       	mov    $0x1003a0,%edx
  100595:	66 89 90 80 00 00 00 	mov    %dx,0x80(%eax)
  10059c:	c1 ea 10             	shr    $0x10,%edx
  10059f:	66 89 90 86 00 00 00 	mov    %dx,0x86(%eax)
  1005a6:	ba a8 03 10 00       	mov    $0x1003a8,%edx
  1005ab:	66 89 90 88 00 00 00 	mov    %dx,0x88(%eax)
  1005b2:	c1 ea 10             	shr    $0x10,%edx
  1005b5:	66 89 90 8e 00 00 00 	mov    %dx,0x8e(%eax)
  1005bc:	ba b0 03 10 00       	mov    $0x1003b0,%edx
  1005c1:	66 89 90 90 00 00 00 	mov    %dx,0x90(%eax)
  1005c8:	c1 ea 10             	shr    $0x10,%edx
  1005cb:	66 89 90 96 00 00 00 	mov    %dx,0x96(%eax)
  1005d2:	ba b8 03 10 00       	mov    $0x1003b8,%edx
  1005d7:	66 89 90 98 00 00 00 	mov    %dx,0x98(%eax)
  1005de:	c1 ea 10             	shr    $0x10,%edx
  1005e1:	66 89 90 9e 00 00 00 	mov    %dx,0x9e(%eax)
  1005e8:	ba c0 03 10 00       	mov    $0x1003c0,%edx
  1005ed:	66 89 90 a0 00 00 00 	mov    %dx,0xa0(%eax)
  1005f4:	c1 ea 10             	shr    $0x10,%edx
  1005f7:	66 89 90 a6 00 00 00 	mov    %dx,0xa6(%eax)
  1005fe:	ba c8 03 10 00       	mov    $0x1003c8,%edx
  100603:	c7 40 52 08 00 00 8f 	movl   $0x8f000008,0x52(%eax)
  10060a:	c7 40 5a 08 00 00 8f 	movl   $0x8f000008,0x5a(%eax)
  100611:	66 89 48 62          	mov    %cx,0x62(%eax)
  100615:	c6 40 65 8f          	movb   $0x8f,0x65(%eax)
  100619:	c6 40 64 00          	movb   $0x0,0x64(%eax)
  10061d:	c7 40 6a 08 00 00 8f 	movl   $0x8f000008,0x6a(%eax)
  100624:	c7 40 72 08 00 00 8f 	movl   $0x8f000008,0x72(%eax)
  10062b:	c7 40 78 00 00 08 00 	movl   $0x80000,0x78(%eax)
  100632:	c7 40 7c 00 00 00 00 	movl   $0x0,0x7c(%eax)
  100639:	c7 80 82 00 00 00 08 	movl   $0x8f000008,0x82(%eax)
  100640:	00 00 8f 
  100643:	c7 80 8a 00 00 00 08 	movl   $0x8f000008,0x8a(%eax)
  10064a:	00 00 8f 
  10064d:	c7 80 92 00 00 00 08 	movl   $0x8f000008,0x92(%eax)
  100654:	00 00 8f 
  100657:	c7 80 9a 00 00 00 08 	movl   $0x8f000008,0x9a(%eax)
  10065e:	00 00 8f 
  100661:	c7 80 a2 00 00 00 08 	movl   $0x8f000008,0xa2(%eax)
  100668:	00 00 8f 
  10066b:	66 89 90 a8 00 00 00 	mov    %dx,0xa8(%eax)
  100672:	c1 ea 10             	shr    $0x10,%edx
  100675:	66 89 90 ae 00 00 00 	mov    %dx,0xae(%eax)
  10067c:	c7 80 aa 00 00 00 08 	movl   $0x8f000008,0xaa(%eax)
  100683:	00 00 8f 
  100686:	5d                   	pop    %ebp
  100687:	c3                   	ret    
  100688:	66 90                	xchg   %ax,%ax
  10068a:	66 90                	xchg   %ax,%ax
  10068c:	66 90                	xchg   %ax,%ax
  10068e:	66 90                	xchg   %ax,%ax

00100690 <kernel_main>:
  100690:	55                   	push   %ebp
  100691:	89 e5                	mov    %esp,%ebp
  100693:	57                   	push   %edi
  100694:	56                   	push   %esi
  100695:	53                   	push   %ebx
  100696:	83 ec 0c             	sub    $0xc,%esp
  100699:	8b 5d 08             	mov    0x8(%ebp),%ebx
  10069c:	8b 75 0c             	mov    0xc(%ebp),%esi
  10069f:	e8 2c fb ff ff       	call   1001d0 <terminal_initialize>
  1006a4:	83 ec 0c             	sub    $0xc,%esp
  1006a7:	68 40 70 10 00       	push   $0x107040
  1006ac:	e8 5f fd ff ff       	call   100410 <idt_initialize>
  1006b1:	c7 04 24 40 70 10 00 	movl   $0x107040,(%esp)
  1006b8:	e8 93 fd ff ff       	call   100450 <idt_init_exception_handlers>
  1006bd:	b8 ff 07 00 00       	mov    $0x7ff,%eax
  1006c2:	c7 05 32 70 10 00 40 	movl   $0x107040,0x107032
  1006c9:	70 10 00 
  1006cc:	66 a3 30 70 10 00    	mov    %ax,0x107030
  1006d2:	0f 01 1d 30 70 10 00 	lidtl  0x107030
  1006d9:	fb                   	sti    
  1006da:	83 c4 10             	add    $0x10,%esp
  1006dd:	81 fb 02 b0 ad 2b    	cmp    $0x2badb002,%ebx
  1006e3:	0f 85 97 00 00 00    	jne    100780 <kernel_main+0xf0>
  1006e9:	f6 06 40             	testb  $0x40,(%esi)
  1006ec:	74 72                	je     100760 <kernel_main+0xd0>
  1006ee:	83 ec 0c             	sub    $0xc,%esp
  1006f1:	68 61 12 10 00       	push   $0x101261
  1006f6:	e8 a5 00 00 00       	call   1007a0 <printf>
  1006fb:	83 c4 10             	add    $0x10,%esp
  1006fe:	83 7e 2c 17          	cmpl   $0x17,0x2c(%esi)
  100702:	8b 5e 30             	mov    0x30(%esi),%ebx
  100705:	76 42                	jbe    100749 <kernel_main+0xb9>
  100707:	31 ff                	xor    %edi,%edi
  100709:	8d b4 26 00 00 00 00 	lea    0x0(%esi,%eiz,1),%esi
  100710:	8b 43 14             	mov    0x14(%ebx),%eax
  100713:	8b 53 04             	mov    0x4(%ebx),%edx
  100716:	83 c7 01             	add    $0x1,%edi
  100719:	83 c3 18             	add    $0x18,%ebx
  10071c:	ff 34 85 08 20 10 00 	push   0x102008(,%eax,4)
  100723:	8b 43 f4             	mov    -0xc(%ebx),%eax
  100726:	01 d0                	add    %edx,%eax
  100728:	83 e8 01             	sub    $0x1,%eax
  10072b:	50                   	push   %eax
  10072c:	52                   	push   %edx
  10072d:	68 6d 12 10 00       	push   $0x10126d
  100732:	e8 69 00 00 00       	call   1007a0 <printf>
  100737:	b8 ab aa aa aa       	mov    $0xaaaaaaab,%eax
  10073c:	f7 66 2c             	mull   0x2c(%esi)
  10073f:	83 c4 10             	add    $0x10,%esp
  100742:	c1 ea 04             	shr    $0x4,%edx
  100745:	39 fa                	cmp    %edi,%edx
  100747:	77 c7                	ja     100710 <kernel_main+0x80>
  100749:	8d 65 f4             	lea    -0xc(%ebp),%esp
  10074c:	5b                   	pop    %ebx
  10074d:	5e                   	pop    %esi
  10074e:	5f                   	pop    %edi
  10074f:	5d                   	pop    %ebp
  100750:	c3                   	ret    
  100751:	8d b4 26 00 00 00 00 	lea    0x0(%esi,%eiz,1),%esi
  100758:	8d b4 26 00 00 00 00 	lea    0x0(%esi,%eiz,1),%esi
  10075f:	90                   	nop
  100760:	c7 45 08 38 12 10 00 	movl   $0x101238,0x8(%ebp)
  100767:	8d 65 f4             	lea    -0xc(%ebp),%esp
  10076a:	5b                   	pop    %ebx
  10076b:	5e                   	pop    %esi
  10076c:	5f                   	pop    %edi
  10076d:	5d                   	pop    %ebp
  10076e:	e9 2d 00 00 00       	jmp    1007a0 <printf>
  100773:	8d b4 26 00 00 00 00 	lea    0x0(%esi,%eiz,1),%esi
  10077a:	8d b6 00 00 00 00    	lea    0x0(%esi),%esi
  100780:	c7 45 08 10 12 10 00 	movl   $0x101210,0x8(%ebp)
  100787:	8d 65 f4             	lea    -0xc(%ebp),%esp
  10078a:	5b                   	pop    %ebx
  10078b:	5e                   	pop    %esi
  10078c:	5f                   	pop    %edi
  10078d:	5d                   	pop    %ebp
  10078e:	e9 0d 00 00 00       	jmp    1007a0 <printf>
  100793:	66 90                	xchg   %ax,%ax
  100795:	66 90                	xchg   %ax,%ax
  100797:	66 90                	xchg   %ax,%ax
  100799:	66 90                	xchg   %ax,%ax
  10079b:	66 90                	xchg   %ax,%ax
  10079d:	66 90                	xchg   %ax,%ax
  10079f:	90                   	nop

001007a0 <printf>:
  1007a0:	55                   	push   %ebp
  1007a1:	89 e5                	mov    %esp,%ebp
  1007a3:	57                   	push   %edi
  1007a4:	56                   	push   %esi
  1007a5:	8d 45 0c             	lea    0xc(%ebp),%eax
  1007a8:	53                   	push   %ebx
  1007a9:	83 ec 4c             	sub    $0x4c,%esp
  1007ac:	89 45 b0             	mov    %eax,-0x50(%ebp)
  1007af:	8b 45 08             	mov    0x8(%ebp),%eax
  1007b2:	c7 45 b4 00 00 00 00 	movl   $0x0,-0x4c(%ebp)
  1007b9:	0f be 00             	movsbl (%eax),%eax
  1007bc:	84 c0                	test   %al,%al
  1007be:	74 6e                	je     10082e <printf+0x8e>
  1007c0:	8d 7d c0             	lea    -0x40(%ebp),%edi
  1007c3:	eb 29                	jmp    1007ee <printf+0x4e>
  1007c5:	8d b4 26 00 00 00 00 	lea    0x0(%esi,%eiz,1),%esi
  1007cc:	8d 74 26 00          	lea    0x0(%esi,%eiz,1),%esi
  1007d0:	83 ec 0c             	sub    $0xc,%esp
  1007d3:	83 45 08 01          	addl   $0x1,0x8(%ebp)
  1007d7:	50                   	push   %eax
  1007d8:	e8 c3 02 00 00       	call   100aa0 <putchar>
  1007dd:	8b 45 08             	mov    0x8(%ebp),%eax
  1007e0:	83 45 b4 01          	addl   $0x1,-0x4c(%ebp)
  1007e4:	83 c4 10             	add    $0x10,%esp
  1007e7:	0f be 00             	movsbl (%eax),%eax
  1007ea:	84 c0                	test   %al,%al
  1007ec:	74 40                	je     10082e <printf+0x8e>
  1007ee:	3c 25                	cmp    $0x25,%al
  1007f0:	75 de                	jne    1007d0 <printf+0x30>
  1007f2:	8b 45 08             	mov    0x8(%ebp),%eax
  1007f5:	0f be 50 01          	movsbl 0x1(%eax),%edx
  1007f9:	8d 42 a8             	lea    -0x58(%edx),%eax
  1007fc:	3c 20                	cmp    $0x20,%al
  1007fe:	77 10                	ja     100810 <printf+0x70>
  100800:	0f b6 c0             	movzbl %al,%eax
  100803:	ff 24 85 88 11 10 00 	jmp    *0x101188(,%eax,4)
  10080a:	8d b6 00 00 00 00    	lea    0x0(%esi),%esi
  100810:	83 ec 0c             	sub    $0xc,%esp
  100813:	52                   	push   %edx
  100814:	e8 87 02 00 00       	call   100aa0 <putchar>
  100819:	83 45 b4 01          	addl   $0x1,-0x4c(%ebp)
  10081d:	83 c4 10             	add    $0x10,%esp
  100820:	83 45 08 02          	addl   $0x2,0x8(%ebp)
  100824:	8b 45 08             	mov    0x8(%ebp),%eax
  100827:	0f be 00             	movsbl (%eax),%eax
  10082a:	84 c0                	test   %al,%al
  10082c:	75 c0                	jne    1007ee <printf+0x4e>
  10082e:	8b 45 b4             	mov    -0x4c(%ebp),%eax
  100831:	8d 65 f4             	lea    -0xc(%ebp),%esp
  100834:	5b                   	pop    %ebx
  100835:	5e                   	pop    %esi
  100836:	5f                   	pop    %edi
  100837:	5d                   	pop    %ebp
  100838:	c3                   	ret    
  100839:	8d b4 26 00 00 00 00 	lea    0x0(%esi,%eiz,1),%esi
  100840:	8b 55 b0             	mov    -0x50(%ebp),%edx
  100843:	89 d0                	mov    %edx,%eax
  100845:	83 c2 04             	add    $0x4,%edx
  100848:	8b 00                	mov    (%eax),%eax
  10084a:	89 55 b0             	mov    %edx,-0x50(%ebp)
  10084d:	83 f8 0f             	cmp    $0xf,%eax
  100850:	0f 86 31 02 00 00    	jbe    100a87 <printf+0x2e7>
  100856:	31 d2                	xor    %edx,%edx
  100858:	8d b4 26 00 00 00 00 	lea    0x0(%esi,%eiz,1),%esi
  10085f:	90                   	nop
  100860:	89 c1                	mov    %eax,%ecx
  100862:	89 d3                	mov    %edx,%ebx
  100864:	c1 e8 04             	shr    $0x4,%eax
  100867:	83 c2 01             	add    $0x1,%edx
  10086a:	83 e1 0f             	and    $0xf,%ecx
  10086d:	89 4c 97 fc          	mov    %ecx,-0x4(%edi,%edx,4)
  100871:	83 f8 0f             	cmp    $0xf,%eax
  100874:	77 ea                	ja     100860 <printf+0xc0>
  100876:	83 c3 02             	add    $0x2,%ebx
  100879:	89 44 95 c0          	mov    %eax,-0x40(%ebp,%edx,4)
  10087d:	8d 34 9f             	lea    (%edi,%ebx,4),%esi
  100880:	eb 11                	jmp    100893 <printf+0xf3>
  100882:	8d b4 26 00 00 00 00 	lea    0x0(%esi,%eiz,1),%esi
  100889:	8d b4 26 00 00 00 00 	lea    0x0(%esi,%eiz,1),%esi
  100890:	8b 46 fc             	mov    -0x4(%esi),%eax
  100893:	0f be 80 b2 12 10 00 	movsbl 0x1012b2(%eax),%eax
  10089a:	83 ec 0c             	sub    $0xc,%esp
  10089d:	83 ee 04             	sub    $0x4,%esi
  1008a0:	50                   	push   %eax
  1008a1:	e8 fa 01 00 00       	call   100aa0 <putchar>
  1008a6:	83 c4 10             	add    $0x10,%esp
  1008a9:	39 f7                	cmp    %esi,%edi
  1008ab:	75 e3                	jne    100890 <printf+0xf0>
  1008ad:	01 5d b4             	add    %ebx,-0x4c(%ebp)
  1008b0:	e9 6b ff ff ff       	jmp    100820 <printf+0x80>
  1008b5:	8d b4 26 00 00 00 00 	lea    0x0(%esi,%eiz,1),%esi
  1008bc:	8d 74 26 00          	lea    0x0(%esi,%eiz,1),%esi
  1008c0:	8b 4d b0             	mov    -0x50(%ebp),%ecx
  1008c3:	89 c8                	mov    %ecx,%eax
  1008c5:	83 c1 04             	add    $0x4,%ecx
  1008c8:	8b 18                	mov    (%eax),%ebx
  1008ca:	89 4d b0             	mov    %ecx,-0x50(%ebp)
  1008cd:	0f be 03             	movsbl (%ebx),%eax
  1008d0:	84 c0                	test   %al,%al
  1008d2:	0f 84 48 ff ff ff    	je     100820 <printf+0x80>
  1008d8:	31 f6                	xor    %esi,%esi
  1008da:	8d b6 00 00 00 00    	lea    0x0(%esi),%esi
  1008e0:	83 ec 0c             	sub    $0xc,%esp
  1008e3:	83 c6 01             	add    $0x1,%esi
  1008e6:	50                   	push   %eax
  1008e7:	e8 b4 01 00 00       	call   100aa0 <putchar>
  1008ec:	0f be 04 33          	movsbl (%ebx,%esi,1),%eax
  1008f0:	83 c4 10             	add    $0x10,%esp
  1008f3:	84 c0                	test   %al,%al
  1008f5:	75 e9                	jne    1008e0 <printf+0x140>
  1008f7:	01 75 b4             	add    %esi,-0x4c(%ebp)
  1008fa:	e9 21 ff ff ff       	jmp    100820 <printf+0x80>
  1008ff:	90                   	nop
  100900:	8b 5d b0             	mov    -0x50(%ebp),%ebx
  100903:	89 d8                	mov    %ebx,%eax
  100905:	83 c3 04             	add    $0x4,%ebx
  100908:	8b 00                	mov    (%eax),%eax
  10090a:	89 5d b0             	mov    %ebx,-0x50(%ebp)
  10090d:	89 c3                	mov    %eax,%ebx
  10090f:	89 45 a8             	mov    %eax,-0x58(%ebp)
  100912:	f7 db                	neg    %ebx
  100914:	0f 48 d8             	cmovs  %eax,%ebx
  100917:	83 fb 09             	cmp    $0x9,%ebx
  10091a:	0f 8e 73 01 00 00    	jle    100a93 <printf+0x2f3>
  100920:	31 f6                	xor    %esi,%esi
  100922:	8d b4 26 00 00 00 00 	lea    0x0(%esi,%eiz,1),%esi
  100929:	8d b4 26 00 00 00 00 	lea    0x0(%esi,%eiz,1),%esi
  100930:	b8 cd cc cc cc       	mov    $0xcccccccd,%eax
  100935:	89 d9                	mov    %ebx,%ecx
  100937:	89 75 ac             	mov    %esi,-0x54(%ebp)
  10093a:	83 c6 01             	add    $0x1,%esi
  10093d:	f7 e3                	mul    %ebx
  10093f:	c1 ea 03             	shr    $0x3,%edx
  100942:	8d 04 92             	lea    (%edx,%edx,4),%eax
  100945:	01 c0                	add    %eax,%eax
  100947:	29 c1                	sub    %eax,%ecx
  100949:	89 d8                	mov    %ebx,%eax
  10094b:	89 d3                	mov    %edx,%ebx
  10094d:	89 4c b7 fc          	mov    %ecx,-0x4(%edi,%esi,4)
  100951:	83 f8 63             	cmp    $0x63,%eax
  100954:	7f da                	jg     100930 <printf+0x190>
  100956:	8b 55 ac             	mov    -0x54(%ebp),%edx
  100959:	83 c2 02             	add    $0x2,%edx
  10095c:	8b 45 a8             	mov    -0x58(%ebp),%eax
  10095f:	89 5c b5 c0          	mov    %ebx,-0x40(%ebp,%esi,4)
  100963:	89 55 ac             	mov    %edx,-0x54(%ebp)
  100966:	85 c0                	test   %eax,%eax
  100968:	0f 88 f2 00 00 00    	js     100a60 <printf+0x2c0>
  10096e:	8d 34 97             	lea    (%edi,%edx,4),%esi
  100971:	eb 10                	jmp    100983 <printf+0x1e3>
  100973:	8d b4 26 00 00 00 00 	lea    0x0(%esi,%eiz,1),%esi
  10097a:	8d b6 00 00 00 00    	lea    0x0(%esi),%esi
  100980:	8b 5e fc             	mov    -0x4(%esi),%ebx
  100983:	83 ec 0c             	sub    $0xc,%esp
  100986:	83 c3 30             	add    $0x30,%ebx
  100989:	83 ee 04             	sub    $0x4,%esi
  10098c:	53                   	push   %ebx
  10098d:	e8 0e 01 00 00       	call   100aa0 <putchar>
  100992:	83 c4 10             	add    $0x10,%esp
  100995:	39 f7                	cmp    %esi,%edi
  100997:	75 e7                	jne    100980 <printf+0x1e0>
  100999:	8b 75 ac             	mov    -0x54(%ebp),%esi
  10099c:	01 75 b4             	add    %esi,-0x4c(%ebp)
  10099f:	e9 7c fe ff ff       	jmp    100820 <printf+0x80>
  1009a4:	8d b4 26 00 00 00 00 	lea    0x0(%esi,%eiz,1),%esi
  1009ab:	8d 74 26 00          	lea    0x0(%esi,%eiz,1),%esi
  1009af:	90                   	nop
  1009b0:	8b 55 b0             	mov    -0x50(%ebp),%edx
  1009b3:	83 ec 0c             	sub    $0xc,%esp
  1009b6:	89 d0                	mov    %edx,%eax
  1009b8:	83 c2 04             	add    $0x4,%edx
  1009bb:	ff 30                	push   (%eax)
  1009bd:	89 55 b0             	mov    %edx,-0x50(%ebp)
  1009c0:	e8 db 00 00 00       	call   100aa0 <putchar>
  1009c5:	83 45 b4 01          	addl   $0x1,-0x4c(%ebp)
  1009c9:	83 c4 10             	add    $0x10,%esp
  1009cc:	e9 4f fe ff ff       	jmp    100820 <printf+0x80>
  1009d1:	8d b4 26 00 00 00 00 	lea    0x0(%esi,%eiz,1),%esi
  1009d8:	8d b4 26 00 00 00 00 	lea    0x0(%esi,%eiz,1),%esi
  1009df:	90                   	nop
  1009e0:	8b 4d b0             	mov    -0x50(%ebp),%ecx
  1009e3:	89 c8                	mov    %ecx,%eax
  1009e5:	83 c1 04             	add    $0x4,%ecx
  1009e8:	8b 00                	mov    (%eax),%eax
  1009ea:	89 4d b0             	mov    %ecx,-0x50(%ebp)
  1009ed:	83 f8 0f             	cmp    $0xf,%eax
  1009f0:	0f 86 88 00 00 00    	jbe    100a7e <printf+0x2de>
  1009f6:	31 d2                	xor    %edx,%edx
  1009f8:	8d b4 26 00 00 00 00 	lea    0x0(%esi,%eiz,1),%esi
  1009ff:	90                   	nop
  100a00:	89 c1                	mov    %eax,%ecx
  100a02:	89 d3                	mov    %edx,%ebx
  100a04:	c1 e8 04             	shr    $0x4,%eax
  100a07:	83 c2 01             	add    $0x1,%edx
  100a0a:	83 e1 0f             	and    $0xf,%ecx
  100a0d:	89 4c 97 fc          	mov    %ecx,-0x4(%edi,%edx,4)
  100a11:	83 f8 0f             	cmp    $0xf,%eax
  100a14:	77 ea                	ja     100a00 <printf+0x260>
  100a16:	83 c3 02             	add    $0x2,%ebx
  100a19:	89 44 95 c0          	mov    %eax,-0x40(%ebp,%edx,4)
  100a1d:	8d 34 9f             	lea    (%edi,%ebx,4),%esi
  100a20:	eb 11                	jmp    100a33 <printf+0x293>
  100a22:	8d b4 26 00 00 00 00 	lea    0x0(%esi,%eiz,1),%esi
  100a29:	8d b4 26 00 00 00 00 	lea    0x0(%esi,%eiz,1),%esi
  100a30:	8b 46 fc             	mov    -0x4(%esi),%eax
  100a33:	0f be 80 c3 12 10 00 	movsbl 0x1012c3(%eax),%eax
  100a3a:	83 ec 0c             	sub    $0xc,%esp
  100a3d:	83 ee 04             	sub    $0x4,%esi
  100a40:	50                   	push   %eax
  100a41:	e8 5a 00 00 00       	call   100aa0 <putchar>
  100a46:	83 c4 10             	add    $0x10,%esp
  100a49:	39 f7                	cmp    %esi,%edi
  100a4b:	75 e3                	jne    100a30 <printf+0x290>
  100a4d:	01 5d b4             	add    %ebx,-0x4c(%ebp)
  100a50:	e9 cb fd ff ff       	jmp    100820 <printf+0x80>
  100a55:	8d b4 26 00 00 00 00 	lea    0x0(%esi,%eiz,1),%esi
  100a5c:	8d 74 26 00          	lea    0x0(%esi,%eiz,1),%esi
  100a60:	83 ec 0c             	sub    $0xc,%esp
  100a63:	89 55 a8             	mov    %edx,-0x58(%ebp)
  100a66:	6a 2d                	push   $0x2d
  100a68:	e8 33 00 00 00       	call   100aa0 <putchar>
  100a6d:	8d 46 02             	lea    0x2(%esi),%eax
  100a70:	8b 55 a8             	mov    -0x58(%ebp),%edx
  100a73:	83 c4 10             	add    $0x10,%esp
  100a76:	89 45 ac             	mov    %eax,-0x54(%ebp)
  100a79:	e9 f0 fe ff ff       	jmp    10096e <printf+0x1ce>
  100a7e:	bb 01 00 00 00       	mov    $0x1,%ebx
  100a83:	31 d2                	xor    %edx,%edx
  100a85:	eb 92                	jmp    100a19 <printf+0x279>
  100a87:	bb 01 00 00 00       	mov    $0x1,%ebx
  100a8c:	31 d2                	xor    %edx,%edx
  100a8e:	e9 e6 fd ff ff       	jmp    100879 <printf+0xd9>
  100a93:	ba 01 00 00 00       	mov    $0x1,%edx
  100a98:	31 f6                	xor    %esi,%esi
  100a9a:	e9 bd fe ff ff       	jmp    10095c <printf+0x1bc>
  100a9f:	90                   	nop

00100aa0 <putchar>:
  100aa0:	55                   	push   %ebp
  100aa1:	89 e5                	mov    %esp,%ebp
  100aa3:	53                   	push   %ebx
  100aa4:	83 ec 10             	sub    $0x10,%esp
  100aa7:	8b 5d 08             	mov    0x8(%ebp),%ebx
  100aaa:	0f b6 c3             	movzbl %bl,%eax
  100aad:	50                   	push   %eax
  100aae:	e8 4d f7 ff ff       	call   100200 <terminal_putchar>
  100ab3:	89 d8                	mov    %ebx,%eax
  100ab5:	8b 5d fc             	mov    -0x4(%ebp),%ebx
  100ab8:	c9                   	leave  
  100ab9:	c3                   	ret    
  100aba:	66 90                	xchg   %ax,%ax
  100abc:	66 90                	xchg   %ax,%ax
  100abe:	66 90                	xchg   %ax,%ax

00100ac0 <__do_global_ctors_aux>:
  100ac0:	a1 20 20 10 00       	mov    0x102020,%eax
  100ac5:	83 f8 ff             	cmp    $0xffffffff,%eax
  100ac8:	74 36                	je     100b00 <__do_global_ctors_aux+0x40>
  100aca:	55                   	push   %ebp
  100acb:	89 e5                	mov    %esp,%ebp
  100acd:	53                   	push   %ebx
  100ace:	bb 20 20 10 00       	mov    $0x102020,%ebx
  100ad3:	83 ec 04             	sub    $0x4,%esp
  100ad6:	8d b4 26 00 00 00 00 	lea    0x0(%esi,%eiz,1),%esi
  100add:	8d 76 00             	lea    0x0(%esi),%esi
  100ae0:	ff d0                	call   *%eax
  100ae2:	8b 43 fc             	mov    -0x4(%ebx),%eax
  100ae5:	83 eb 04             	sub    $0x4,%ebx
  100ae8:	83 f8 ff             	cmp    $0xffffffff,%eax
  100aeb:	75 f3                	jne    100ae0 <__do_global_ctors_aux+0x20>
  100aed:	8b 5d fc             	mov    -0x4(%ebp),%ebx
  100af0:	c9                   	leave  
  100af1:	c3                   	ret    
  100af2:	8d b4 26 00 00 00 00 	lea    0x0(%esi,%eiz,1),%esi
  100af9:	8d b4 26 00 00 00 00 	lea    0x0(%esi,%eiz,1),%esi
  100b00:	c3                   	ret    

Disassembly of section .init:

00100b01 <_init>:
  100b01:	55                   	push   %ebp
  100b02:	89 e5                	mov    %esp,%ebp
  100b04:	e8 17 f6 ff ff       	call   100120 <frame_dummy>
  100b09:	e8 b2 ff ff ff       	call   100ac0 <__do_global_ctors_aux>
  100b0e:	5d                   	pop    %ebp
  100b0f:	c3                   	ret    

Disassembly of section .fini:

00100b10 <_fini>:
  100b10:	55                   	push   %ebp
  100b11:	89 e5                	mov    %esp,%ebp
  100b13:	e8 88 f5 ff ff       	call   1000a0 <__do_global_dtors_aux>
  100b18:	5d                   	pop    %ebp
  100b19:	c3                   	ret    
